
c1:     file format elf64-x86-64


Disassembly of section .init:

000000000000a000 <_init>:
    a000:	f3 0f 1e fa          	endbr64 
    a004:	48 83 ec 08          	sub    $0x8,%rsp
    a008:	48 8b 05 d1 cf 01 00 	mov    0x1cfd1(%rip),%rax        # 26fe0 <__gmon_start__@Base>
    a00f:	48 85 c0             	test   %rax,%rax
    a012:	74 02                	je     a016 <_init+0x16>
    a014:	ff d0                	call   *%rax
    a016:	48 83 c4 08          	add    $0x8,%rsp
    a01a:	c3                   	ret    

Disassembly of section .plt:

000000000000a020 <.plt>:
    a020:	ff 35 82 cf 01 00    	push   0x1cf82(%rip)        # 26fa8 <_GLOBAL_OFFSET_TABLE_+0x8>
    a026:	f2 ff 25 83 cf 01 00 	bnd jmp *0x1cf83(%rip)        # 26fb0 <_GLOBAL_OFFSET_TABLE_+0x10>
    a02d:	0f 1f 00             	nopl   (%rax)
    a030:	f3 0f 1e fa          	endbr64 
    a034:	68 00 00 00 00       	push   $0x0
    a039:	f2 e9 e1 ff ff ff    	bnd jmp a020 <_init+0x20>
    a03f:	90                   	nop
    a040:	f3 0f 1e fa          	endbr64 
    a044:	68 01 00 00 00       	push   $0x1
    a049:	f2 e9 d1 ff ff ff    	bnd jmp a020 <_init+0x20>
    a04f:	90                   	nop
    a050:	f3 0f 1e fa          	endbr64 
    a054:	68 02 00 00 00       	push   $0x2
    a059:	f2 e9 c1 ff ff ff    	bnd jmp a020 <_init+0x20>
    a05f:	90                   	nop

Disassembly of section .plt.got:

000000000000a060 <__cxa_finalize@plt>:
    a060:	f3 0f 1e fa          	endbr64 
    a064:	f2 ff 25 85 cf 01 00 	bnd jmp *0x1cf85(%rip)        # 26ff0 <__cxa_finalize@GLIBC_2.2.5>
    a06b:	0f 1f 44 00 00       	nopl   0x0(%rax,%rax,1)

Disassembly of section .plt.sec:

000000000000a070 <__stack_chk_fail@plt>:
    a070:	f3 0f 1e fa          	endbr64 
    a074:	f2 ff 25 3d cf 01 00 	bnd jmp *0x1cf3d(%rip)        # 26fb8 <__stack_chk_fail@GLIBC_2.4>
    a07b:	0f 1f 44 00 00       	nopl   0x0(%rax,%rax,1)

000000000000a080 <printf@plt>:
    a080:	f3 0f 1e fa          	endbr64 
    a084:	f2 ff 25 35 cf 01 00 	bnd jmp *0x1cf35(%rip)        # 26fc0 <printf@GLIBC_2.2.5>
    a08b:	0f 1f 44 00 00       	nopl   0x0(%rax,%rax,1)

000000000000a090 <strcmp@plt>:
    a090:	f3 0f 1e fa          	endbr64 
    a094:	f2 ff 25 2d cf 01 00 	bnd jmp *0x1cf2d(%rip)        # 26fc8 <strcmp@GLIBC_2.2.5>
    a09b:	0f 1f 44 00 00       	nopl   0x0(%rax,%rax,1)

Disassembly of section .text:

000000000000a0a0 <_start>:
    a0a0:	f3 0f 1e fa          	endbr64 
    a0a4:	31 ed                	xor    %ebp,%ebp
    a0a6:	49 89 d1             	mov    %rdx,%r9
    a0a9:	5e                   	pop    %rsi
    a0aa:	48 89 e2             	mov    %rsp,%rdx
    a0ad:	48 83 e4 f0          	and    $0xfffffffffffffff0,%rsp
    a0b1:	50                   	push   %rax
    a0b2:	54                   	push   %rsp
    a0b3:	45 31 c0             	xor    %r8d,%r8d
    a0b6:	31 c9                	xor    %ecx,%ecx
    a0b8:	48 8d 3d 09 16 01 00 	lea    0x11609(%rip),%rdi        # 1b6c8 <main>
    a0bf:	ff 15 0b cf 01 00    	call   *0x1cf0b(%rip)        # 26fd0 <__libc_start_main@GLIBC_2.34>
    a0c5:	f4                   	hlt    
    a0c6:	66 2e 0f 1f 84 00 00 	cs nopw 0x0(%rax,%rax,1)
    a0cd:	00 00 00 

000000000000a0d0 <deregister_tm_clones>:
    a0d0:	48 8d 3d 59 41 02 00 	lea    0x24159(%rip),%rdi        # 2e230 <__TMC_END__>
    a0d7:	48 8d 05 52 41 02 00 	lea    0x24152(%rip),%rax        # 2e230 <__TMC_END__>
    a0de:	48 39 f8             	cmp    %rdi,%rax
    a0e1:	74 15                	je     a0f8 <deregister_tm_clones+0x28>
    a0e3:	48 8b 05 ee ce 01 00 	mov    0x1ceee(%rip),%rax        # 26fd8 <_ITM_deregisterTMCloneTable@Base>
    a0ea:	48 85 c0             	test   %rax,%rax
    a0ed:	74 09                	je     a0f8 <deregister_tm_clones+0x28>
    a0ef:	ff e0                	jmp    *%rax
    a0f1:	0f 1f 80 00 00 00 00 	nopl   0x0(%rax)
    a0f8:	c3                   	ret    
    a0f9:	0f 1f 80 00 00 00 00 	nopl   0x0(%rax)

000000000000a100 <register_tm_clones>:
    a100:	48 8d 3d 29 41 02 00 	lea    0x24129(%rip),%rdi        # 2e230 <__TMC_END__>
    a107:	48 8d 35 22 41 02 00 	lea    0x24122(%rip),%rsi        # 2e230 <__TMC_END__>
    a10e:	48 29 fe             	sub    %rdi,%rsi
    a111:	48 89 f0             	mov    %rsi,%rax
    a114:	48 c1 ee 3f          	shr    $0x3f,%rsi
    a118:	48 c1 f8 03          	sar    $0x3,%rax
    a11c:	48 01 c6             	add    %rax,%rsi
    a11f:	48 d1 fe             	sar    %rsi
    a122:	74 14                	je     a138 <register_tm_clones+0x38>
    a124:	48 8b 05 bd ce 01 00 	mov    0x1cebd(%rip),%rax        # 26fe8 <_ITM_registerTMCloneTable@Base>
    a12b:	48 85 c0             	test   %rax,%rax
    a12e:	74 08                	je     a138 <register_tm_clones+0x38>
    a130:	ff e0                	jmp    *%rax
    a132:	66 0f 1f 44 00 00    	nopw   0x0(%rax,%rax,1)
    a138:	c3                   	ret    
    a139:	0f 1f 80 00 00 00 00 	nopl   0x0(%rax)

000000000000a140 <__do_global_dtors_aux>:
    a140:	f3 0f 1e fa          	endbr64 
    a144:	80 3d f5 40 02 00 00 	cmpb   $0x0,0x240f5(%rip)        # 2e240 <completed.0>
    a14b:	75 2b                	jne    a178 <__do_global_dtors_aux+0x38>
    a14d:	55                   	push   %rbp
    a14e:	48 83 3d 9a ce 01 00 	cmpq   $0x0,0x1ce9a(%rip)        # 26ff0 <__cxa_finalize@GLIBC_2.2.5>
    a155:	00 
    a156:	48 89 e5             	mov    %rsp,%rbp
    a159:	74 0c                	je     a167 <__do_global_dtors_aux+0x27>
    a15b:	48 8b 3d a6 ce 01 00 	mov    0x1cea6(%rip),%rdi        # 27008 <__dso_handle>
    a162:	e8 f9 fe ff ff       	call   a060 <__cxa_finalize@plt>
    a167:	e8 64 ff ff ff       	call   a0d0 <deregister_tm_clones>
    a16c:	c6 05 cd 40 02 00 01 	movb   $0x1,0x240cd(%rip)        # 2e240 <completed.0>
    a173:	5d                   	pop    %rbp
    a174:	c3                   	ret    
    a175:	0f 1f 00             	nopl   (%rax)
    a178:	c3                   	ret    
    a179:	0f 1f 80 00 00 00 00 	nopl   0x0(%rax)

000000000000a180 <frame_dummy>:
    a180:	f3 0f 1e fa          	endbr64 
    a184:	e9 77 ff ff ff       	jmp    a100 <register_tm_clones>

000000000000a189 <platform_main_begin>:
    a189:	f3 0f 1e fa          	endbr64 
    a18d:	55                   	push   %rbp
    a18e:	48 89 e5             	mov    %rsp,%rbp
    a191:	90                   	nop
    a192:	5d                   	pop    %rbp
    a193:	c3                   	ret    

000000000000a194 <platform_main_end>:
    a194:	f3 0f 1e fa          	endbr64 
    a198:	55                   	push   %rbp
    a199:	48 89 e5             	mov    %rsp,%rbp
    a19c:	48 83 ec 10          	sub    $0x10,%rsp
    a1a0:	89 7d fc             	mov    %edi,-0x4(%rbp)
    a1a3:	89 75 f8             	mov    %esi,-0x8(%rbp)
    a1a6:	8b 45 fc             	mov    -0x4(%rbp),%eax
    a1a9:	89 c6                	mov    %eax,%esi
    a1ab:	48 8d 05 6e 6e 01 00 	lea    0x16e6e(%rip),%rax        # 21020 <_IO_stdin_used+0x20>
    a1b2:	48 89 c7             	mov    %rax,%rdi
    a1b5:	b8 00 00 00 00       	mov    $0x0,%eax
    a1ba:	e8 c1 fe ff ff       	call   a080 <printf@plt>
    a1bf:	90                   	nop
    a1c0:	c9                   	leave  
    a1c1:	c3                   	ret    

000000000000a1c2 <safe_unary_minus_func_int8_t_s>:
    a1c2:	f3 0f 1e fa          	endbr64 
    a1c6:	55                   	push   %rbp
    a1c7:	48 89 e5             	mov    %rsp,%rbp
    a1ca:	89 f8                	mov    %edi,%eax
    a1cc:	88 45 fc             	mov    %al,-0x4(%rbp)
    a1cf:	0f b6 45 fc          	movzbl -0x4(%rbp),%eax
    a1d3:	f7 d8                	neg    %eax
    a1d5:	5d                   	pop    %rbp
    a1d6:	c3                   	ret    

000000000000a1d7 <safe_add_func_int8_t_s_s>:
    a1d7:	f3 0f 1e fa          	endbr64 
    a1db:	55                   	push   %rbp
    a1dc:	48 89 e5             	mov    %rsp,%rbp
    a1df:	89 fa                	mov    %edi,%edx
    a1e1:	89 f0                	mov    %esi,%eax
    a1e3:	88 55 fc             	mov    %dl,-0x4(%rbp)
    a1e6:	88 45 f8             	mov    %al,-0x8(%rbp)
    a1e9:	0f b6 55 fc          	movzbl -0x4(%rbp),%edx
    a1ed:	0f b6 45 f8          	movzbl -0x8(%rbp),%eax
    a1f1:	01 d0                	add    %edx,%eax
    a1f3:	5d                   	pop    %rbp
    a1f4:	c3                   	ret    

000000000000a1f5 <safe_sub_func_int8_t_s_s>:
    a1f5:	f3 0f 1e fa          	endbr64 
    a1f9:	55                   	push   %rbp
    a1fa:	48 89 e5             	mov    %rsp,%rbp
    a1fd:	89 fa                	mov    %edi,%edx
    a1ff:	89 f0                	mov    %esi,%eax
    a201:	88 55 fc             	mov    %dl,-0x4(%rbp)
    a204:	88 45 f8             	mov    %al,-0x8(%rbp)
    a207:	0f b6 45 fc          	movzbl -0x4(%rbp),%eax
    a20b:	0f b6 55 f8          	movzbl -0x8(%rbp),%edx
    a20f:	29 d0                	sub    %edx,%eax
    a211:	5d                   	pop    %rbp
    a212:	c3                   	ret    

000000000000a213 <safe_mul_func_int8_t_s_s>:
    a213:	f3 0f 1e fa          	endbr64 
    a217:	55                   	push   %rbp
    a218:	48 89 e5             	mov    %rsp,%rbp
    a21b:	89 fa                	mov    %edi,%edx
    a21d:	89 f0                	mov    %esi,%eax
    a21f:	88 55 fc             	mov    %dl,-0x4(%rbp)
    a222:	88 45 f8             	mov    %al,-0x8(%rbp)
    a225:	0f b6 45 fc          	movzbl -0x4(%rbp),%eax
    a229:	0f b6 55 f8          	movzbl -0x8(%rbp),%edx
    a22d:	0f af c2             	imul   %edx,%eax
    a230:	5d                   	pop    %rbp
    a231:	c3                   	ret    

000000000000a232 <safe_mod_func_int8_t_s_s>:
    a232:	f3 0f 1e fa          	endbr64 
    a236:	55                   	push   %rbp
    a237:	48 89 e5             	mov    %rsp,%rbp
    a23a:	89 fa                	mov    %edi,%edx
    a23c:	89 f0                	mov    %esi,%eax
    a23e:	88 55 fc             	mov    %dl,-0x4(%rbp)
    a241:	88 45 f8             	mov    %al,-0x8(%rbp)
    a244:	80 7d f8 00          	cmpb   $0x0,-0x8(%rbp)
    a248:	74 1b                	je     a265 <safe_mod_func_int8_t_s_s+0x33>
    a24a:	80 7d fc 80          	cmpb   $0x80,-0x4(%rbp)
    a24e:	75 06                	jne    a256 <safe_mod_func_int8_t_s_s+0x24>
    a250:	80 7d f8 ff          	cmpb   $0xff,-0x8(%rbp)
    a254:	74 0f                	je     a265 <safe_mod_func_int8_t_s_s+0x33>
    a256:	0f be 45 fc          	movsbl -0x4(%rbp),%eax
    a25a:	0f be 4d f8          	movsbl -0x8(%rbp),%ecx
    a25e:	99                   	cltd   
    a25f:	f7 f9                	idiv   %ecx
    a261:	89 d0                	mov    %edx,%eax
    a263:	eb 04                	jmp    a269 <safe_mod_func_int8_t_s_s+0x37>
    a265:	0f b6 45 fc          	movzbl -0x4(%rbp),%eax
    a269:	5d                   	pop    %rbp
    a26a:	c3                   	ret    

000000000000a26b <safe_div_func_int8_t_s_s>:
    a26b:	f3 0f 1e fa          	endbr64 
    a26f:	55                   	push   %rbp
    a270:	48 89 e5             	mov    %rsp,%rbp
    a273:	89 fa                	mov    %edi,%edx
    a275:	89 f0                	mov    %esi,%eax
    a277:	88 55 fc             	mov    %dl,-0x4(%rbp)
    a27a:	88 45 f8             	mov    %al,-0x8(%rbp)
    a27d:	80 7d f8 00          	cmpb   $0x0,-0x8(%rbp)
    a281:	74 19                	je     a29c <safe_div_func_int8_t_s_s+0x31>
    a283:	80 7d fc 80          	cmpb   $0x80,-0x4(%rbp)
    a287:	75 06                	jne    a28f <safe_div_func_int8_t_s_s+0x24>
    a289:	80 7d f8 ff          	cmpb   $0xff,-0x8(%rbp)
    a28d:	74 0d                	je     a29c <safe_div_func_int8_t_s_s+0x31>
    a28f:	0f be 45 fc          	movsbl -0x4(%rbp),%eax
    a293:	0f be 4d f8          	movsbl -0x8(%rbp),%ecx
    a297:	99                   	cltd   
    a298:	f7 f9                	idiv   %ecx
    a29a:	eb 04                	jmp    a2a0 <safe_div_func_int8_t_s_s+0x35>
    a29c:	0f b6 45 fc          	movzbl -0x4(%rbp),%eax
    a2a0:	5d                   	pop    %rbp
    a2a1:	c3                   	ret    

000000000000a2a2 <safe_lshift_func_int8_t_s_s>:
    a2a2:	f3 0f 1e fa          	endbr64 
    a2a6:	55                   	push   %rbp
    a2a7:	48 89 e5             	mov    %rsp,%rbp
    a2aa:	89 f8                	mov    %edi,%eax
    a2ac:	89 75 f8             	mov    %esi,-0x8(%rbp)
    a2af:	88 45 fc             	mov    %al,-0x4(%rbp)
    a2b2:	80 7d fc 00          	cmpb   $0x0,-0x4(%rbp)
    a2b6:	78 31                	js     a2e9 <safe_lshift_func_int8_t_s_s+0x47>
    a2b8:	83 7d f8 00          	cmpl   $0x0,-0x8(%rbp)
    a2bc:	78 2b                	js     a2e9 <safe_lshift_func_int8_t_s_s+0x47>
    a2be:	83 7d f8 1f          	cmpl   $0x1f,-0x8(%rbp)
    a2c2:	7f 25                	jg     a2e9 <safe_lshift_func_int8_t_s_s+0x47>
    a2c4:	0f be 55 fc          	movsbl -0x4(%rbp),%edx
    a2c8:	8b 45 f8             	mov    -0x8(%rbp),%eax
    a2cb:	be 7f 00 00 00       	mov    $0x7f,%esi
    a2d0:	89 c1                	mov    %eax,%ecx
    a2d2:	d3 fe                	sar    %cl,%esi
    a2d4:	89 f0                	mov    %esi,%eax
    a2d6:	39 c2                	cmp    %eax,%edx
    a2d8:	7f 0f                	jg     a2e9 <safe_lshift_func_int8_t_s_s+0x47>
    a2da:	0f be 55 fc          	movsbl -0x4(%rbp),%edx
    a2de:	8b 45 f8             	mov    -0x8(%rbp),%eax
    a2e1:	89 c1                	mov    %eax,%ecx
    a2e3:	d3 e2                	shl    %cl,%edx
    a2e5:	89 d0                	mov    %edx,%eax
    a2e7:	eb 04                	jmp    a2ed <safe_lshift_func_int8_t_s_s+0x4b>
    a2e9:	0f b6 45 fc          	movzbl -0x4(%rbp),%eax
    a2ed:	5d                   	pop    %rbp
    a2ee:	c3                   	ret    

000000000000a2ef <safe_lshift_func_int8_t_s_u>:
    a2ef:	f3 0f 1e fa          	endbr64 
    a2f3:	55                   	push   %rbp
    a2f4:	48 89 e5             	mov    %rsp,%rbp
    a2f7:	89 f8                	mov    %edi,%eax
    a2f9:	89 75 f8             	mov    %esi,-0x8(%rbp)
    a2fc:	88 45 fc             	mov    %al,-0x4(%rbp)
    a2ff:	80 7d fc 00          	cmpb   $0x0,-0x4(%rbp)
    a303:	78 2b                	js     a330 <safe_lshift_func_int8_t_s_u+0x41>
    a305:	83 7d f8 1f          	cmpl   $0x1f,-0x8(%rbp)
    a309:	77 25                	ja     a330 <safe_lshift_func_int8_t_s_u+0x41>
    a30b:	0f be 55 fc          	movsbl -0x4(%rbp),%edx
    a30f:	8b 45 f8             	mov    -0x8(%rbp),%eax
    a312:	be 7f 00 00 00       	mov    $0x7f,%esi
    a317:	89 c1                	mov    %eax,%ecx
    a319:	d3 fe                	sar    %cl,%esi
    a31b:	89 f0                	mov    %esi,%eax
    a31d:	39 c2                	cmp    %eax,%edx
    a31f:	7f 0f                	jg     a330 <safe_lshift_func_int8_t_s_u+0x41>
    a321:	0f be 55 fc          	movsbl -0x4(%rbp),%edx
    a325:	8b 45 f8             	mov    -0x8(%rbp),%eax
    a328:	89 c1                	mov    %eax,%ecx
    a32a:	d3 e2                	shl    %cl,%edx
    a32c:	89 d0                	mov    %edx,%eax
    a32e:	eb 04                	jmp    a334 <safe_lshift_func_int8_t_s_u+0x45>
    a330:	0f b6 45 fc          	movzbl -0x4(%rbp),%eax
    a334:	5d                   	pop    %rbp
    a335:	c3                   	ret    

000000000000a336 <safe_rshift_func_int8_t_s_s>:
    a336:	f3 0f 1e fa          	endbr64 
    a33a:	55                   	push   %rbp
    a33b:	48 89 e5             	mov    %rsp,%rbp
    a33e:	89 f8                	mov    %edi,%eax
    a340:	89 75 f8             	mov    %esi,-0x8(%rbp)
    a343:	88 45 fc             	mov    %al,-0x4(%rbp)
    a346:	80 7d fc 00          	cmpb   $0x0,-0x4(%rbp)
    a34a:	78 1b                	js     a367 <safe_rshift_func_int8_t_s_s+0x31>
    a34c:	83 7d f8 00          	cmpl   $0x0,-0x8(%rbp)
    a350:	78 15                	js     a367 <safe_rshift_func_int8_t_s_s+0x31>
    a352:	83 7d f8 1f          	cmpl   $0x1f,-0x8(%rbp)
    a356:	7f 0f                	jg     a367 <safe_rshift_func_int8_t_s_s+0x31>
    a358:	0f be 55 fc          	movsbl -0x4(%rbp),%edx
    a35c:	8b 45 f8             	mov    -0x8(%rbp),%eax
    a35f:	89 c1                	mov    %eax,%ecx
    a361:	d3 fa                	sar    %cl,%edx
    a363:	89 d0                	mov    %edx,%eax
    a365:	eb 04                	jmp    a36b <safe_rshift_func_int8_t_s_s+0x35>
    a367:	0f b6 45 fc          	movzbl -0x4(%rbp),%eax
    a36b:	5d                   	pop    %rbp
    a36c:	c3                   	ret    

000000000000a36d <safe_rshift_func_int8_t_s_u>:
    a36d:	f3 0f 1e fa          	endbr64 
    a371:	55                   	push   %rbp
    a372:	48 89 e5             	mov    %rsp,%rbp
    a375:	89 f8                	mov    %edi,%eax
    a377:	89 75 f8             	mov    %esi,-0x8(%rbp)
    a37a:	88 45 fc             	mov    %al,-0x4(%rbp)
    a37d:	80 7d fc 00          	cmpb   $0x0,-0x4(%rbp)
    a381:	78 15                	js     a398 <safe_rshift_func_int8_t_s_u+0x2b>
    a383:	83 7d f8 1f          	cmpl   $0x1f,-0x8(%rbp)
    a387:	77 0f                	ja     a398 <safe_rshift_func_int8_t_s_u+0x2b>
    a389:	0f be 55 fc          	movsbl -0x4(%rbp),%edx
    a38d:	8b 45 f8             	mov    -0x8(%rbp),%eax
    a390:	89 c1                	mov    %eax,%ecx
    a392:	d3 fa                	sar    %cl,%edx
    a394:	89 d0                	mov    %edx,%eax
    a396:	eb 04                	jmp    a39c <safe_rshift_func_int8_t_s_u+0x2f>
    a398:	0f b6 45 fc          	movzbl -0x4(%rbp),%eax
    a39c:	5d                   	pop    %rbp
    a39d:	c3                   	ret    

000000000000a39e <safe_unary_minus_func_int16_t_s>:
    a39e:	f3 0f 1e fa          	endbr64 
    a3a2:	55                   	push   %rbp
    a3a3:	48 89 e5             	mov    %rsp,%rbp
    a3a6:	89 f8                	mov    %edi,%eax
    a3a8:	66 89 45 fc          	mov    %ax,-0x4(%rbp)
    a3ac:	0f b7 45 fc          	movzwl -0x4(%rbp),%eax
    a3b0:	f7 d8                	neg    %eax
    a3b2:	5d                   	pop    %rbp
    a3b3:	c3                   	ret    

000000000000a3b4 <safe_add_func_int16_t_s_s>:
    a3b4:	f3 0f 1e fa          	endbr64 
    a3b8:	55                   	push   %rbp
    a3b9:	48 89 e5             	mov    %rsp,%rbp
    a3bc:	89 fa                	mov    %edi,%edx
    a3be:	89 f0                	mov    %esi,%eax
    a3c0:	66 89 55 fc          	mov    %dx,-0x4(%rbp)
    a3c4:	66 89 45 f8          	mov    %ax,-0x8(%rbp)
    a3c8:	0f b7 55 fc          	movzwl -0x4(%rbp),%edx
    a3cc:	0f b7 45 f8          	movzwl -0x8(%rbp),%eax
    a3d0:	01 d0                	add    %edx,%eax
    a3d2:	5d                   	pop    %rbp
    a3d3:	c3                   	ret    

000000000000a3d4 <safe_sub_func_int16_t_s_s>:
    a3d4:	f3 0f 1e fa          	endbr64 
    a3d8:	55                   	push   %rbp
    a3d9:	48 89 e5             	mov    %rsp,%rbp
    a3dc:	89 fa                	mov    %edi,%edx
    a3de:	89 f0                	mov    %esi,%eax
    a3e0:	66 89 55 fc          	mov    %dx,-0x4(%rbp)
    a3e4:	66 89 45 f8          	mov    %ax,-0x8(%rbp)
    a3e8:	0f b7 45 fc          	movzwl -0x4(%rbp),%eax
    a3ec:	0f b7 55 f8          	movzwl -0x8(%rbp),%edx
    a3f0:	29 d0                	sub    %edx,%eax
    a3f2:	5d                   	pop    %rbp
    a3f3:	c3                   	ret    

000000000000a3f4 <safe_mul_func_int16_t_s_s>:
    a3f4:	f3 0f 1e fa          	endbr64 
    a3f8:	55                   	push   %rbp
    a3f9:	48 89 e5             	mov    %rsp,%rbp
    a3fc:	89 fa                	mov    %edi,%edx
    a3fe:	89 f0                	mov    %esi,%eax
    a400:	66 89 55 fc          	mov    %dx,-0x4(%rbp)
    a404:	66 89 45 f8          	mov    %ax,-0x8(%rbp)
    a408:	0f b7 55 fc          	movzwl -0x4(%rbp),%edx
    a40c:	0f b7 45 f8          	movzwl -0x8(%rbp),%eax
    a410:	0f af c2             	imul   %edx,%eax
    a413:	5d                   	pop    %rbp
    a414:	c3                   	ret    

000000000000a415 <safe_mod_func_int16_t_s_s>:
    a415:	f3 0f 1e fa          	endbr64 
    a419:	55                   	push   %rbp
    a41a:	48 89 e5             	mov    %rsp,%rbp
    a41d:	89 fa                	mov    %edi,%edx
    a41f:	89 f0                	mov    %esi,%eax
    a421:	66 89 55 fc          	mov    %dx,-0x4(%rbp)
    a425:	66 89 45 f8          	mov    %ax,-0x8(%rbp)
    a429:	66 83 7d f8 00       	cmpw   $0x0,-0x8(%rbp)
    a42e:	74 1e                	je     a44e <safe_mod_func_int16_t_s_s+0x39>
    a430:	66 81 7d fc 00 80    	cmpw   $0x8000,-0x4(%rbp)
    a436:	75 07                	jne    a43f <safe_mod_func_int16_t_s_s+0x2a>
    a438:	66 83 7d f8 ff       	cmpw   $0xffff,-0x8(%rbp)
    a43d:	74 0f                	je     a44e <safe_mod_func_int16_t_s_s+0x39>
    a43f:	0f bf 45 fc          	movswl -0x4(%rbp),%eax
    a443:	0f bf 4d f8          	movswl -0x8(%rbp),%ecx
    a447:	99                   	cltd   
    a448:	f7 f9                	idiv   %ecx
    a44a:	89 d0                	mov    %edx,%eax
    a44c:	eb 04                	jmp    a452 <safe_mod_func_int16_t_s_s+0x3d>
    a44e:	0f b7 45 fc          	movzwl -0x4(%rbp),%eax
    a452:	5d                   	pop    %rbp
    a453:	c3                   	ret    

000000000000a454 <safe_div_func_int16_t_s_s>:
    a454:	f3 0f 1e fa          	endbr64 
    a458:	55                   	push   %rbp
    a459:	48 89 e5             	mov    %rsp,%rbp
    a45c:	89 fa                	mov    %edi,%edx
    a45e:	89 f0                	mov    %esi,%eax
    a460:	66 89 55 fc          	mov    %dx,-0x4(%rbp)
    a464:	66 89 45 f8          	mov    %ax,-0x8(%rbp)
    a468:	66 83 7d f8 00       	cmpw   $0x0,-0x8(%rbp)
    a46d:	74 1c                	je     a48b <safe_div_func_int16_t_s_s+0x37>
    a46f:	66 81 7d fc 00 80    	cmpw   $0x8000,-0x4(%rbp)
    a475:	75 07                	jne    a47e <safe_div_func_int16_t_s_s+0x2a>
    a477:	66 83 7d f8 ff       	cmpw   $0xffff,-0x8(%rbp)
    a47c:	74 0d                	je     a48b <safe_div_func_int16_t_s_s+0x37>
    a47e:	0f bf 45 fc          	movswl -0x4(%rbp),%eax
    a482:	0f bf 4d f8          	movswl -0x8(%rbp),%ecx
    a486:	99                   	cltd   
    a487:	f7 f9                	idiv   %ecx
    a489:	eb 04                	jmp    a48f <safe_div_func_int16_t_s_s+0x3b>
    a48b:	0f b7 45 fc          	movzwl -0x4(%rbp),%eax
    a48f:	5d                   	pop    %rbp
    a490:	c3                   	ret    

000000000000a491 <safe_lshift_func_int16_t_s_s>:
    a491:	f3 0f 1e fa          	endbr64 
    a495:	55                   	push   %rbp
    a496:	48 89 e5             	mov    %rsp,%rbp
    a499:	89 f8                	mov    %edi,%eax
    a49b:	89 75 f8             	mov    %esi,-0x8(%rbp)
    a49e:	66 89 45 fc          	mov    %ax,-0x4(%rbp)
    a4a2:	66 83 7d fc 00       	cmpw   $0x0,-0x4(%rbp)
    a4a7:	78 31                	js     a4da <safe_lshift_func_int16_t_s_s+0x49>
    a4a9:	83 7d f8 00          	cmpl   $0x0,-0x8(%rbp)
    a4ad:	78 2b                	js     a4da <safe_lshift_func_int16_t_s_s+0x49>
    a4af:	83 7d f8 1f          	cmpl   $0x1f,-0x8(%rbp)
    a4b3:	7f 25                	jg     a4da <safe_lshift_func_int16_t_s_s+0x49>
    a4b5:	0f bf 55 fc          	movswl -0x4(%rbp),%edx
    a4b9:	8b 45 f8             	mov    -0x8(%rbp),%eax
    a4bc:	be ff 7f 00 00       	mov    $0x7fff,%esi
    a4c1:	89 c1                	mov    %eax,%ecx
    a4c3:	d3 fe                	sar    %cl,%esi
    a4c5:	89 f0                	mov    %esi,%eax
    a4c7:	39 c2                	cmp    %eax,%edx
    a4c9:	7f 0f                	jg     a4da <safe_lshift_func_int16_t_s_s+0x49>
    a4cb:	0f bf 55 fc          	movswl -0x4(%rbp),%edx
    a4cf:	8b 45 f8             	mov    -0x8(%rbp),%eax
    a4d2:	89 c1                	mov    %eax,%ecx
    a4d4:	d3 e2                	shl    %cl,%edx
    a4d6:	89 d0                	mov    %edx,%eax
    a4d8:	eb 04                	jmp    a4de <safe_lshift_func_int16_t_s_s+0x4d>
    a4da:	0f b7 45 fc          	movzwl -0x4(%rbp),%eax
    a4de:	5d                   	pop    %rbp
    a4df:	c3                   	ret    

000000000000a4e0 <safe_lshift_func_int16_t_s_u>:
    a4e0:	f3 0f 1e fa          	endbr64 
    a4e4:	55                   	push   %rbp
    a4e5:	48 89 e5             	mov    %rsp,%rbp
    a4e8:	89 f8                	mov    %edi,%eax
    a4ea:	89 75 f8             	mov    %esi,-0x8(%rbp)
    a4ed:	66 89 45 fc          	mov    %ax,-0x4(%rbp)
    a4f1:	66 83 7d fc 00       	cmpw   $0x0,-0x4(%rbp)
    a4f6:	78 2b                	js     a523 <safe_lshift_func_int16_t_s_u+0x43>
    a4f8:	83 7d f8 1f          	cmpl   $0x1f,-0x8(%rbp)
    a4fc:	77 25                	ja     a523 <safe_lshift_func_int16_t_s_u+0x43>
    a4fe:	0f bf 55 fc          	movswl -0x4(%rbp),%edx
    a502:	8b 45 f8             	mov    -0x8(%rbp),%eax
    a505:	be ff 7f 00 00       	mov    $0x7fff,%esi
    a50a:	89 c1                	mov    %eax,%ecx
    a50c:	d3 fe                	sar    %cl,%esi
    a50e:	89 f0                	mov    %esi,%eax
    a510:	39 c2                	cmp    %eax,%edx
    a512:	7f 0f                	jg     a523 <safe_lshift_func_int16_t_s_u+0x43>
    a514:	0f bf 55 fc          	movswl -0x4(%rbp),%edx
    a518:	8b 45 f8             	mov    -0x8(%rbp),%eax
    a51b:	89 c1                	mov    %eax,%ecx
    a51d:	d3 e2                	shl    %cl,%edx
    a51f:	89 d0                	mov    %edx,%eax
    a521:	eb 04                	jmp    a527 <safe_lshift_func_int16_t_s_u+0x47>
    a523:	0f b7 45 fc          	movzwl -0x4(%rbp),%eax
    a527:	5d                   	pop    %rbp
    a528:	c3                   	ret    

000000000000a529 <safe_rshift_func_int16_t_s_s>:
    a529:	f3 0f 1e fa          	endbr64 
    a52d:	55                   	push   %rbp
    a52e:	48 89 e5             	mov    %rsp,%rbp
    a531:	89 f8                	mov    %edi,%eax
    a533:	89 75 f8             	mov    %esi,-0x8(%rbp)
    a536:	66 89 45 fc          	mov    %ax,-0x4(%rbp)
    a53a:	66 83 7d fc 00       	cmpw   $0x0,-0x4(%rbp)
    a53f:	78 1b                	js     a55c <safe_rshift_func_int16_t_s_s+0x33>
    a541:	83 7d f8 00          	cmpl   $0x0,-0x8(%rbp)
    a545:	78 15                	js     a55c <safe_rshift_func_int16_t_s_s+0x33>
    a547:	83 7d f8 1f          	cmpl   $0x1f,-0x8(%rbp)
    a54b:	7f 0f                	jg     a55c <safe_rshift_func_int16_t_s_s+0x33>
    a54d:	0f bf 55 fc          	movswl -0x4(%rbp),%edx
    a551:	8b 45 f8             	mov    -0x8(%rbp),%eax
    a554:	89 c1                	mov    %eax,%ecx
    a556:	d3 fa                	sar    %cl,%edx
    a558:	89 d0                	mov    %edx,%eax
    a55a:	eb 04                	jmp    a560 <safe_rshift_func_int16_t_s_s+0x37>
    a55c:	0f b7 45 fc          	movzwl -0x4(%rbp),%eax
    a560:	5d                   	pop    %rbp
    a561:	c3                   	ret    

000000000000a562 <safe_rshift_func_int16_t_s_u>:
    a562:	f3 0f 1e fa          	endbr64 
    a566:	55                   	push   %rbp
    a567:	48 89 e5             	mov    %rsp,%rbp
    a56a:	89 f8                	mov    %edi,%eax
    a56c:	89 75 f8             	mov    %esi,-0x8(%rbp)
    a56f:	66 89 45 fc          	mov    %ax,-0x4(%rbp)
    a573:	66 83 7d fc 00       	cmpw   $0x0,-0x4(%rbp)
    a578:	78 15                	js     a58f <safe_rshift_func_int16_t_s_u+0x2d>
    a57a:	83 7d f8 1f          	cmpl   $0x1f,-0x8(%rbp)
    a57e:	77 0f                	ja     a58f <safe_rshift_func_int16_t_s_u+0x2d>
    a580:	0f bf 55 fc          	movswl -0x4(%rbp),%edx
    a584:	8b 45 f8             	mov    -0x8(%rbp),%eax
    a587:	89 c1                	mov    %eax,%ecx
    a589:	d3 fa                	sar    %cl,%edx
    a58b:	89 d0                	mov    %edx,%eax
    a58d:	eb 04                	jmp    a593 <safe_rshift_func_int16_t_s_u+0x31>
    a58f:	0f b7 45 fc          	movzwl -0x4(%rbp),%eax
    a593:	5d                   	pop    %rbp
    a594:	c3                   	ret    

000000000000a595 <safe_unary_minus_func_int32_t_s>:
    a595:	f3 0f 1e fa          	endbr64 
    a599:	55                   	push   %rbp
    a59a:	48 89 e5             	mov    %rsp,%rbp
    a59d:	89 7d fc             	mov    %edi,-0x4(%rbp)
    a5a0:	81 7d fc 00 00 00 80 	cmpl   $0x80000000,-0x4(%rbp)
    a5a7:	74 07                	je     a5b0 <safe_unary_minus_func_int32_t_s+0x1b>
    a5a9:	8b 45 fc             	mov    -0x4(%rbp),%eax
    a5ac:	f7 d8                	neg    %eax
    a5ae:	eb 03                	jmp    a5b3 <safe_unary_minus_func_int32_t_s+0x1e>
    a5b0:	8b 45 fc             	mov    -0x4(%rbp),%eax
    a5b3:	5d                   	pop    %rbp
    a5b4:	c3                   	ret    

000000000000a5b5 <safe_add_func_int32_t_s_s>:
    a5b5:	f3 0f 1e fa          	endbr64 
    a5b9:	55                   	push   %rbp
    a5ba:	48 89 e5             	mov    %rsp,%rbp
    a5bd:	89 7d fc             	mov    %edi,-0x4(%rbp)
    a5c0:	89 75 f8             	mov    %esi,-0x8(%rbp)
    a5c3:	83 7d fc 00          	cmpl   $0x0,-0x4(%rbp)
    a5c7:	7e 13                	jle    a5dc <safe_add_func_int32_t_s_s+0x27>
    a5c9:	83 7d f8 00          	cmpl   $0x0,-0x8(%rbp)
    a5cd:	7e 0d                	jle    a5dc <safe_add_func_int32_t_s_s+0x27>
    a5cf:	b8 ff ff ff 7f       	mov    $0x7fffffff,%eax
    a5d4:	2b 45 f8             	sub    -0x8(%rbp),%eax
    a5d7:	39 45 fc             	cmp    %eax,-0x4(%rbp)
    a5da:	7f 23                	jg     a5ff <safe_add_func_int32_t_s_s+0x4a>
    a5dc:	83 7d fc 00          	cmpl   $0x0,-0x4(%rbp)
    a5e0:	79 13                	jns    a5f5 <safe_add_func_int32_t_s_s+0x40>
    a5e2:	83 7d f8 00          	cmpl   $0x0,-0x8(%rbp)
    a5e6:	79 0d                	jns    a5f5 <safe_add_func_int32_t_s_s+0x40>
    a5e8:	b8 00 00 00 80       	mov    $0x80000000,%eax
    a5ed:	2b 45 f8             	sub    -0x8(%rbp),%eax
    a5f0:	39 45 fc             	cmp    %eax,-0x4(%rbp)
    a5f3:	7c 0a                	jl     a5ff <safe_add_func_int32_t_s_s+0x4a>
    a5f5:	8b 55 fc             	mov    -0x4(%rbp),%edx
    a5f8:	8b 45 f8             	mov    -0x8(%rbp),%eax
    a5fb:	01 d0                	add    %edx,%eax
    a5fd:	eb 03                	jmp    a602 <safe_add_func_int32_t_s_s+0x4d>
    a5ff:	8b 45 fc             	mov    -0x4(%rbp),%eax
    a602:	5d                   	pop    %rbp
    a603:	c3                   	ret    

000000000000a604 <safe_sub_func_int32_t_s_s>:
    a604:	f3 0f 1e fa          	endbr64 
    a608:	55                   	push   %rbp
    a609:	48 89 e5             	mov    %rsp,%rbp
    a60c:	89 7d fc             	mov    %edi,-0x4(%rbp)
    a60f:	89 75 f8             	mov    %esi,-0x8(%rbp)
    a612:	8b 45 fc             	mov    -0x4(%rbp),%eax
    a615:	33 45 f8             	xor    -0x8(%rbp),%eax
    a618:	89 c2                	mov    %eax,%edx
    a61a:	8b 45 fc             	mov    -0x4(%rbp),%eax
    a61d:	33 45 f8             	xor    -0x8(%rbp),%eax
    a620:	25 00 00 00 80       	and    $0x80000000,%eax
    a625:	33 45 fc             	xor    -0x4(%rbp),%eax
    a628:	2b 45 f8             	sub    -0x8(%rbp),%eax
    a62b:	33 45 f8             	xor    -0x8(%rbp),%eax
    a62e:	21 d0                	and    %edx,%eax
    a630:	85 c0                	test   %eax,%eax
    a632:	78 08                	js     a63c <safe_sub_func_int32_t_s_s+0x38>
    a634:	8b 45 fc             	mov    -0x4(%rbp),%eax
    a637:	2b 45 f8             	sub    -0x8(%rbp),%eax
    a63a:	eb 03                	jmp    a63f <safe_sub_func_int32_t_s_s+0x3b>
    a63c:	8b 45 fc             	mov    -0x4(%rbp),%eax
    a63f:	5d                   	pop    %rbp
    a640:	c3                   	ret    

000000000000a641 <safe_mul_func_int32_t_s_s>:
    a641:	f3 0f 1e fa          	endbr64 
    a645:	55                   	push   %rbp
    a646:	48 89 e5             	mov    %rsp,%rbp
    a649:	89 7d fc             	mov    %edi,-0x4(%rbp)
    a64c:	89 75 f8             	mov    %esi,-0x8(%rbp)
    a64f:	83 7d fc 00          	cmpl   $0x0,-0x4(%rbp)
    a653:	7e 14                	jle    a669 <safe_mul_func_int32_t_s_s+0x28>
    a655:	83 7d f8 00          	cmpl   $0x0,-0x8(%rbp)
    a659:	7e 0e                	jle    a669 <safe_mul_func_int32_t_s_s+0x28>
    a65b:	b8 ff ff ff 7f       	mov    $0x7fffffff,%eax
    a660:	99                   	cltd   
    a661:	f7 7d f8             	idivl  -0x8(%rbp)
    a664:	39 45 fc             	cmp    %eax,-0x4(%rbp)
    a667:	7f 5d                	jg     a6c6 <safe_mul_func_int32_t_s_s+0x85>
    a669:	83 7d fc 00          	cmpl   $0x0,-0x4(%rbp)
    a66d:	7e 14                	jle    a683 <safe_mul_func_int32_t_s_s+0x42>
    a66f:	83 7d f8 00          	cmpl   $0x0,-0x8(%rbp)
    a673:	7f 0e                	jg     a683 <safe_mul_func_int32_t_s_s+0x42>
    a675:	b8 00 00 00 80       	mov    $0x80000000,%eax
    a67a:	99                   	cltd   
    a67b:	f7 7d fc             	idivl  -0x4(%rbp)
    a67e:	39 45 f8             	cmp    %eax,-0x8(%rbp)
    a681:	7c 43                	jl     a6c6 <safe_mul_func_int32_t_s_s+0x85>
    a683:	83 7d fc 00          	cmpl   $0x0,-0x4(%rbp)
    a687:	7f 14                	jg     a69d <safe_mul_func_int32_t_s_s+0x5c>
    a689:	83 7d f8 00          	cmpl   $0x0,-0x8(%rbp)
    a68d:	7e 0e                	jle    a69d <safe_mul_func_int32_t_s_s+0x5c>
    a68f:	b8 00 00 00 80       	mov    $0x80000000,%eax
    a694:	99                   	cltd   
    a695:	f7 7d f8             	idivl  -0x8(%rbp)
    a698:	39 45 fc             	cmp    %eax,-0x4(%rbp)
    a69b:	7c 29                	jl     a6c6 <safe_mul_func_int32_t_s_s+0x85>
    a69d:	83 7d fc 00          	cmpl   $0x0,-0x4(%rbp)
    a6a1:	7f 1a                	jg     a6bd <safe_mul_func_int32_t_s_s+0x7c>
    a6a3:	83 7d f8 00          	cmpl   $0x0,-0x8(%rbp)
    a6a7:	7f 14                	jg     a6bd <safe_mul_func_int32_t_s_s+0x7c>
    a6a9:	83 7d fc 00          	cmpl   $0x0,-0x4(%rbp)
    a6ad:	74 0e                	je     a6bd <safe_mul_func_int32_t_s_s+0x7c>
    a6af:	b8 ff ff ff 7f       	mov    $0x7fffffff,%eax
    a6b4:	99                   	cltd   
    a6b5:	f7 7d fc             	idivl  -0x4(%rbp)
    a6b8:	39 45 f8             	cmp    %eax,-0x8(%rbp)
    a6bb:	7c 09                	jl     a6c6 <safe_mul_func_int32_t_s_s+0x85>
    a6bd:	8b 45 fc             	mov    -0x4(%rbp),%eax
    a6c0:	0f af 45 f8          	imul   -0x8(%rbp),%eax
    a6c4:	eb 03                	jmp    a6c9 <safe_mul_func_int32_t_s_s+0x88>
    a6c6:	8b 45 fc             	mov    -0x4(%rbp),%eax
    a6c9:	5d                   	pop    %rbp
    a6ca:	c3                   	ret    

000000000000a6cb <safe_mod_func_int32_t_s_s>:
    a6cb:	f3 0f 1e fa          	endbr64 
    a6cf:	55                   	push   %rbp
    a6d0:	48 89 e5             	mov    %rsp,%rbp
    a6d3:	89 7d fc             	mov    %edi,-0x4(%rbp)
    a6d6:	89 75 f8             	mov    %esi,-0x8(%rbp)
    a6d9:	83 7d f8 00          	cmpl   $0x0,-0x8(%rbp)
    a6dd:	74 1a                	je     a6f9 <safe_mod_func_int32_t_s_s+0x2e>
    a6df:	81 7d fc 00 00 00 80 	cmpl   $0x80000000,-0x4(%rbp)
    a6e6:	75 06                	jne    a6ee <safe_mod_func_int32_t_s_s+0x23>
    a6e8:	83 7d f8 ff          	cmpl   $0xffffffff,-0x8(%rbp)
    a6ec:	74 0b                	je     a6f9 <safe_mod_func_int32_t_s_s+0x2e>
    a6ee:	8b 45 fc             	mov    -0x4(%rbp),%eax
    a6f1:	99                   	cltd   
    a6f2:	f7 7d f8             	idivl  -0x8(%rbp)
    a6f5:	89 d0                	mov    %edx,%eax
    a6f7:	eb 03                	jmp    a6fc <safe_mod_func_int32_t_s_s+0x31>
    a6f9:	8b 45 fc             	mov    -0x4(%rbp),%eax
    a6fc:	5d                   	pop    %rbp
    a6fd:	c3                   	ret    

000000000000a6fe <safe_div_func_int32_t_s_s>:
    a6fe:	f3 0f 1e fa          	endbr64 
    a702:	55                   	push   %rbp
    a703:	48 89 e5             	mov    %rsp,%rbp
    a706:	89 7d fc             	mov    %edi,-0x4(%rbp)
    a709:	89 75 f8             	mov    %esi,-0x8(%rbp)
    a70c:	83 7d f8 00          	cmpl   $0x0,-0x8(%rbp)
    a710:	74 18                	je     a72a <safe_div_func_int32_t_s_s+0x2c>
    a712:	81 7d fc 00 00 00 80 	cmpl   $0x80000000,-0x4(%rbp)
    a719:	75 06                	jne    a721 <safe_div_func_int32_t_s_s+0x23>
    a71b:	83 7d f8 ff          	cmpl   $0xffffffff,-0x8(%rbp)
    a71f:	74 09                	je     a72a <safe_div_func_int32_t_s_s+0x2c>
    a721:	8b 45 fc             	mov    -0x4(%rbp),%eax
    a724:	99                   	cltd   
    a725:	f7 7d f8             	idivl  -0x8(%rbp)
    a728:	eb 03                	jmp    a72d <safe_div_func_int32_t_s_s+0x2f>
    a72a:	8b 45 fc             	mov    -0x4(%rbp),%eax
    a72d:	5d                   	pop    %rbp
    a72e:	c3                   	ret    

000000000000a72f <safe_lshift_func_int32_t_s_s>:
    a72f:	f3 0f 1e fa          	endbr64 
    a733:	55                   	push   %rbp
    a734:	48 89 e5             	mov    %rsp,%rbp
    a737:	89 7d fc             	mov    %edi,-0x4(%rbp)
    a73a:	89 75 f8             	mov    %esi,-0x8(%rbp)
    a73d:	83 7d fc 00          	cmpl   $0x0,-0x4(%rbp)
    a741:	78 2d                	js     a770 <safe_lshift_func_int32_t_s_s+0x41>
    a743:	83 7d f8 00          	cmpl   $0x0,-0x8(%rbp)
    a747:	78 27                	js     a770 <safe_lshift_func_int32_t_s_s+0x41>
    a749:	83 7d f8 1f          	cmpl   $0x1f,-0x8(%rbp)
    a74d:	7f 21                	jg     a770 <safe_lshift_func_int32_t_s_s+0x41>
    a74f:	8b 45 f8             	mov    -0x8(%rbp),%eax
    a752:	ba ff ff ff 7f       	mov    $0x7fffffff,%edx
    a757:	89 c1                	mov    %eax,%ecx
    a759:	d3 fa                	sar    %cl,%edx
    a75b:	89 d0                	mov    %edx,%eax
    a75d:	39 45 fc             	cmp    %eax,-0x4(%rbp)
    a760:	7f 0e                	jg     a770 <safe_lshift_func_int32_t_s_s+0x41>
    a762:	8b 45 f8             	mov    -0x8(%rbp),%eax
    a765:	8b 55 fc             	mov    -0x4(%rbp),%edx
    a768:	89 c1                	mov    %eax,%ecx
    a76a:	d3 e2                	shl    %cl,%edx
    a76c:	89 d0                	mov    %edx,%eax
    a76e:	eb 03                	jmp    a773 <safe_lshift_func_int32_t_s_s+0x44>
    a770:	8b 45 fc             	mov    -0x4(%rbp),%eax
    a773:	5d                   	pop    %rbp
    a774:	c3                   	ret    

000000000000a775 <safe_lshift_func_int32_t_s_u>:
    a775:	f3 0f 1e fa          	endbr64 
    a779:	55                   	push   %rbp
    a77a:	48 89 e5             	mov    %rsp,%rbp
    a77d:	89 7d fc             	mov    %edi,-0x4(%rbp)
    a780:	89 75 f8             	mov    %esi,-0x8(%rbp)
    a783:	83 7d fc 00          	cmpl   $0x0,-0x4(%rbp)
    a787:	78 27                	js     a7b0 <safe_lshift_func_int32_t_s_u+0x3b>
    a789:	83 7d f8 1f          	cmpl   $0x1f,-0x8(%rbp)
    a78d:	77 21                	ja     a7b0 <safe_lshift_func_int32_t_s_u+0x3b>
    a78f:	8b 45 f8             	mov    -0x8(%rbp),%eax
    a792:	ba ff ff ff 7f       	mov    $0x7fffffff,%edx
    a797:	89 c1                	mov    %eax,%ecx
    a799:	d3 fa                	sar    %cl,%edx
    a79b:	89 d0                	mov    %edx,%eax
    a79d:	39 45 fc             	cmp    %eax,-0x4(%rbp)
    a7a0:	7f 0e                	jg     a7b0 <safe_lshift_func_int32_t_s_u+0x3b>
    a7a2:	8b 45 f8             	mov    -0x8(%rbp),%eax
    a7a5:	8b 55 fc             	mov    -0x4(%rbp),%edx
    a7a8:	89 c1                	mov    %eax,%ecx
    a7aa:	d3 e2                	shl    %cl,%edx
    a7ac:	89 d0                	mov    %edx,%eax
    a7ae:	eb 03                	jmp    a7b3 <safe_lshift_func_int32_t_s_u+0x3e>
    a7b0:	8b 45 fc             	mov    -0x4(%rbp),%eax
    a7b3:	5d                   	pop    %rbp
    a7b4:	c3                   	ret    

000000000000a7b5 <safe_rshift_func_int32_t_s_s>:
    a7b5:	f3 0f 1e fa          	endbr64 
    a7b9:	55                   	push   %rbp
    a7ba:	48 89 e5             	mov    %rsp,%rbp
    a7bd:	89 7d fc             	mov    %edi,-0x4(%rbp)
    a7c0:	89 75 f8             	mov    %esi,-0x8(%rbp)
    a7c3:	83 7d fc 00          	cmpl   $0x0,-0x4(%rbp)
    a7c7:	78 1a                	js     a7e3 <safe_rshift_func_int32_t_s_s+0x2e>
    a7c9:	83 7d f8 00          	cmpl   $0x0,-0x8(%rbp)
    a7cd:	78 14                	js     a7e3 <safe_rshift_func_int32_t_s_s+0x2e>
    a7cf:	83 7d f8 1f          	cmpl   $0x1f,-0x8(%rbp)
    a7d3:	7f 0e                	jg     a7e3 <safe_rshift_func_int32_t_s_s+0x2e>
    a7d5:	8b 45 f8             	mov    -0x8(%rbp),%eax
    a7d8:	8b 55 fc             	mov    -0x4(%rbp),%edx
    a7db:	89 c1                	mov    %eax,%ecx
    a7dd:	d3 fa                	sar    %cl,%edx
    a7df:	89 d0                	mov    %edx,%eax
    a7e1:	eb 03                	jmp    a7e6 <safe_rshift_func_int32_t_s_s+0x31>
    a7e3:	8b 45 fc             	mov    -0x4(%rbp),%eax
    a7e6:	5d                   	pop    %rbp
    a7e7:	c3                   	ret    

000000000000a7e8 <safe_rshift_func_int32_t_s_u>:
    a7e8:	f3 0f 1e fa          	endbr64 
    a7ec:	55                   	push   %rbp
    a7ed:	48 89 e5             	mov    %rsp,%rbp
    a7f0:	89 7d fc             	mov    %edi,-0x4(%rbp)
    a7f3:	89 75 f8             	mov    %esi,-0x8(%rbp)
    a7f6:	83 7d fc 00          	cmpl   $0x0,-0x4(%rbp)
    a7fa:	78 14                	js     a810 <safe_rshift_func_int32_t_s_u+0x28>
    a7fc:	83 7d f8 1f          	cmpl   $0x1f,-0x8(%rbp)
    a800:	77 0e                	ja     a810 <safe_rshift_func_int32_t_s_u+0x28>
    a802:	8b 45 f8             	mov    -0x8(%rbp),%eax
    a805:	8b 55 fc             	mov    -0x4(%rbp),%edx
    a808:	89 c1                	mov    %eax,%ecx
    a80a:	d3 fa                	sar    %cl,%edx
    a80c:	89 d0                	mov    %edx,%eax
    a80e:	eb 03                	jmp    a813 <safe_rshift_func_int32_t_s_u+0x2b>
    a810:	8b 45 fc             	mov    -0x4(%rbp),%eax
    a813:	5d                   	pop    %rbp
    a814:	c3                   	ret    

000000000000a815 <safe_unary_minus_func_int64_t_s>:
    a815:	f3 0f 1e fa          	endbr64 
    a819:	55                   	push   %rbp
    a81a:	48 89 e5             	mov    %rsp,%rbp
    a81d:	48 89 7d f8          	mov    %rdi,-0x8(%rbp)
    a821:	48 b8 00 00 00 00 00 	movabs $0x8000000000000000,%rax
    a828:	00 00 80 
    a82b:	48 39 45 f8          	cmp    %rax,-0x8(%rbp)
    a82f:	74 09                	je     a83a <safe_unary_minus_func_int64_t_s+0x25>
    a831:	48 8b 45 f8          	mov    -0x8(%rbp),%rax
    a835:	48 f7 d8             	neg    %rax
    a838:	eb 04                	jmp    a83e <safe_unary_minus_func_int64_t_s+0x29>
    a83a:	48 8b 45 f8          	mov    -0x8(%rbp),%rax
    a83e:	5d                   	pop    %rbp
    a83f:	c3                   	ret    

000000000000a840 <safe_add_func_int64_t_s_s>:
    a840:	f3 0f 1e fa          	endbr64 
    a844:	55                   	push   %rbp
    a845:	48 89 e5             	mov    %rsp,%rbp
    a848:	48 89 7d f8          	mov    %rdi,-0x8(%rbp)
    a84c:	48 89 75 f0          	mov    %rsi,-0x10(%rbp)
    a850:	48 83 7d f8 00       	cmpq   $0x0,-0x8(%rbp)
    a855:	7e 1b                	jle    a872 <safe_add_func_int64_t_s_s+0x32>
    a857:	48 83 7d f0 00       	cmpq   $0x0,-0x10(%rbp)
    a85c:	7e 14                	jle    a872 <safe_add_func_int64_t_s_s+0x32>
    a85e:	48 b8 ff ff ff ff ff 	movabs $0x7fffffffffffffff,%rax
    a865:	ff ff 7f 
    a868:	48 2b 45 f0          	sub    -0x10(%rbp),%rax
    a86c:	48 39 45 f8          	cmp    %rax,-0x8(%rbp)
    a870:	7f 2f                	jg     a8a1 <safe_add_func_int64_t_s_s+0x61>
    a872:	48 83 7d f8 00       	cmpq   $0x0,-0x8(%rbp)
    a877:	79 1b                	jns    a894 <safe_add_func_int64_t_s_s+0x54>
    a879:	48 83 7d f0 00       	cmpq   $0x0,-0x10(%rbp)
    a87e:	79 14                	jns    a894 <safe_add_func_int64_t_s_s+0x54>
    a880:	48 b8 00 00 00 00 00 	movabs $0x8000000000000000,%rax
    a887:	00 00 80 
    a88a:	48 2b 45 f0          	sub    -0x10(%rbp),%rax
    a88e:	48 39 45 f8          	cmp    %rax,-0x8(%rbp)
    a892:	7c 0d                	jl     a8a1 <safe_add_func_int64_t_s_s+0x61>
    a894:	48 8b 55 f8          	mov    -0x8(%rbp),%rdx
    a898:	48 8b 45 f0          	mov    -0x10(%rbp),%rax
    a89c:	48 01 d0             	add    %rdx,%rax
    a89f:	eb 04                	jmp    a8a5 <safe_add_func_int64_t_s_s+0x65>
    a8a1:	48 8b 45 f8          	mov    -0x8(%rbp),%rax
    a8a5:	5d                   	pop    %rbp
    a8a6:	c3                   	ret    

000000000000a8a7 <safe_sub_func_int64_t_s_s>:
    a8a7:	f3 0f 1e fa          	endbr64 
    a8ab:	55                   	push   %rbp
    a8ac:	48 89 e5             	mov    %rsp,%rbp
    a8af:	48 89 7d f8          	mov    %rdi,-0x8(%rbp)
    a8b3:	48 89 75 f0          	mov    %rsi,-0x10(%rbp)
    a8b7:	48 8b 45 f8          	mov    -0x8(%rbp),%rax
    a8bb:	48 33 45 f0          	xor    -0x10(%rbp),%rax
    a8bf:	48 89 c2             	mov    %rax,%rdx
    a8c2:	48 8b 45 f8          	mov    -0x8(%rbp),%rax
    a8c6:	48 33 45 f0          	xor    -0x10(%rbp),%rax
    a8ca:	48 b9 00 00 00 00 00 	movabs $0x8000000000000000,%rcx
    a8d1:	00 00 80 
    a8d4:	48 21 c8             	and    %rcx,%rax
    a8d7:	48 33 45 f8          	xor    -0x8(%rbp),%rax
    a8db:	48 2b 45 f0          	sub    -0x10(%rbp),%rax
    a8df:	48 33 45 f0          	xor    -0x10(%rbp),%rax
    a8e3:	48 21 d0             	and    %rdx,%rax
    a8e6:	48 85 c0             	test   %rax,%rax
    a8e9:	78 0a                	js     a8f5 <safe_sub_func_int64_t_s_s+0x4e>
    a8eb:	48 8b 45 f8          	mov    -0x8(%rbp),%rax
    a8ef:	48 2b 45 f0          	sub    -0x10(%rbp),%rax
    a8f3:	eb 04                	jmp    a8f9 <safe_sub_func_int64_t_s_s+0x52>
    a8f5:	48 8b 45 f8          	mov    -0x8(%rbp),%rax
    a8f9:	5d                   	pop    %rbp
    a8fa:	c3                   	ret    

000000000000a8fb <safe_mul_func_int64_t_s_s>:
    a8fb:	f3 0f 1e fa          	endbr64 
    a8ff:	55                   	push   %rbp
    a900:	48 89 e5             	mov    %rsp,%rbp
    a903:	48 89 7d f8          	mov    %rdi,-0x8(%rbp)
    a907:	48 89 75 f0          	mov    %rsi,-0x10(%rbp)
    a90b:	48 83 7d f8 00       	cmpq   $0x0,-0x8(%rbp)
    a910:	7e 1d                	jle    a92f <safe_mul_func_int64_t_s_s+0x34>
    a912:	48 83 7d f0 00       	cmpq   $0x0,-0x10(%rbp)
    a917:	7e 16                	jle    a92f <safe_mul_func_int64_t_s_s+0x34>
    a919:	48 b8 ff ff ff ff ff 	movabs $0x7fffffffffffffff,%rax
    a920:	ff ff 7f 
    a923:	48 99                	cqto   
    a925:	48 f7 7d f0          	idivq  -0x10(%rbp)
    a929:	48 39 45 f8          	cmp    %rax,-0x8(%rbp)
    a92d:	7f 7e                	jg     a9ad <safe_mul_func_int64_t_s_s+0xb2>
    a92f:	48 83 7d f8 00       	cmpq   $0x0,-0x8(%rbp)
    a934:	7e 1d                	jle    a953 <safe_mul_func_int64_t_s_s+0x58>
    a936:	48 83 7d f0 00       	cmpq   $0x0,-0x10(%rbp)
    a93b:	7f 16                	jg     a953 <safe_mul_func_int64_t_s_s+0x58>
    a93d:	48 b8 00 00 00 00 00 	movabs $0x8000000000000000,%rax
    a944:	00 00 80 
    a947:	48 99                	cqto   
    a949:	48 f7 7d f8          	idivq  -0x8(%rbp)
    a94d:	48 39 45 f0          	cmp    %rax,-0x10(%rbp)
    a951:	7c 5a                	jl     a9ad <safe_mul_func_int64_t_s_s+0xb2>
    a953:	48 83 7d f8 00       	cmpq   $0x0,-0x8(%rbp)
    a958:	7f 1d                	jg     a977 <safe_mul_func_int64_t_s_s+0x7c>
    a95a:	48 83 7d f0 00       	cmpq   $0x0,-0x10(%rbp)
    a95f:	7e 16                	jle    a977 <safe_mul_func_int64_t_s_s+0x7c>
    a961:	48 b8 00 00 00 00 00 	movabs $0x8000000000000000,%rax
    a968:	00 00 80 
    a96b:	48 99                	cqto   
    a96d:	48 f7 7d f0          	idivq  -0x10(%rbp)
    a971:	48 39 45 f8          	cmp    %rax,-0x8(%rbp)
    a975:	7c 36                	jl     a9ad <safe_mul_func_int64_t_s_s+0xb2>
    a977:	48 83 7d f8 00       	cmpq   $0x0,-0x8(%rbp)
    a97c:	7f 24                	jg     a9a2 <safe_mul_func_int64_t_s_s+0xa7>
    a97e:	48 83 7d f0 00       	cmpq   $0x0,-0x10(%rbp)
    a983:	7f 1d                	jg     a9a2 <safe_mul_func_int64_t_s_s+0xa7>
    a985:	48 83 7d f8 00       	cmpq   $0x0,-0x8(%rbp)
    a98a:	74 16                	je     a9a2 <safe_mul_func_int64_t_s_s+0xa7>
    a98c:	48 b8 ff ff ff ff ff 	movabs $0x7fffffffffffffff,%rax
    a993:	ff ff 7f 
    a996:	48 99                	cqto   
    a998:	48 f7 7d f8          	idivq  -0x8(%rbp)
    a99c:	48 39 45 f0          	cmp    %rax,-0x10(%rbp)
    a9a0:	7c 0b                	jl     a9ad <safe_mul_func_int64_t_s_s+0xb2>
    a9a2:	48 8b 45 f8          	mov    -0x8(%rbp),%rax
    a9a6:	48 0f af 45 f0       	imul   -0x10(%rbp),%rax
    a9ab:	eb 04                	jmp    a9b1 <safe_mul_func_int64_t_s_s+0xb6>
    a9ad:	48 8b 45 f8          	mov    -0x8(%rbp),%rax
    a9b1:	5d                   	pop    %rbp
    a9b2:	c3                   	ret    

000000000000a9b3 <safe_mod_func_int64_t_s_s>:
    a9b3:	f3 0f 1e fa          	endbr64 
    a9b7:	55                   	push   %rbp
    a9b8:	48 89 e5             	mov    %rsp,%rbp
    a9bb:	48 89 7d f8          	mov    %rdi,-0x8(%rbp)
    a9bf:	48 89 75 f0          	mov    %rsi,-0x10(%rbp)
    a9c3:	48 83 7d f0 00       	cmpq   $0x0,-0x10(%rbp)
    a9c8:	74 26                	je     a9f0 <safe_mod_func_int64_t_s_s+0x3d>
    a9ca:	48 b8 00 00 00 00 00 	movabs $0x8000000000000000,%rax
    a9d1:	00 00 80 
    a9d4:	48 39 45 f8          	cmp    %rax,-0x8(%rbp)
    a9d8:	75 07                	jne    a9e1 <safe_mod_func_int64_t_s_s+0x2e>
    a9da:	48 83 7d f0 ff       	cmpq   $0xffffffffffffffff,-0x10(%rbp)
    a9df:	74 0f                	je     a9f0 <safe_mod_func_int64_t_s_s+0x3d>
    a9e1:	48 8b 45 f8          	mov    -0x8(%rbp),%rax
    a9e5:	48 99                	cqto   
    a9e7:	48 f7 7d f0          	idivq  -0x10(%rbp)
    a9eb:	48 89 d0             	mov    %rdx,%rax
    a9ee:	eb 04                	jmp    a9f4 <safe_mod_func_int64_t_s_s+0x41>
    a9f0:	48 8b 45 f8          	mov    -0x8(%rbp),%rax
    a9f4:	5d                   	pop    %rbp
    a9f5:	c3                   	ret    

000000000000a9f6 <safe_div_func_int64_t_s_s>:
    a9f6:	f3 0f 1e fa          	endbr64 
    a9fa:	55                   	push   %rbp
    a9fb:	48 89 e5             	mov    %rsp,%rbp
    a9fe:	48 89 7d f8          	mov    %rdi,-0x8(%rbp)
    aa02:	48 89 75 f0          	mov    %rsi,-0x10(%rbp)
    aa06:	48 83 7d f0 00       	cmpq   $0x0,-0x10(%rbp)
    aa0b:	74 23                	je     aa30 <safe_div_func_int64_t_s_s+0x3a>
    aa0d:	48 b8 00 00 00 00 00 	movabs $0x8000000000000000,%rax
    aa14:	00 00 80 
    aa17:	48 39 45 f8          	cmp    %rax,-0x8(%rbp)
    aa1b:	75 07                	jne    aa24 <safe_div_func_int64_t_s_s+0x2e>
    aa1d:	48 83 7d f0 ff       	cmpq   $0xffffffffffffffff,-0x10(%rbp)
    aa22:	74 0c                	je     aa30 <safe_div_func_int64_t_s_s+0x3a>
    aa24:	48 8b 45 f8          	mov    -0x8(%rbp),%rax
    aa28:	48 99                	cqto   
    aa2a:	48 f7 7d f0          	idivq  -0x10(%rbp)
    aa2e:	eb 04                	jmp    aa34 <safe_div_func_int64_t_s_s+0x3e>
    aa30:	48 8b 45 f8          	mov    -0x8(%rbp),%rax
    aa34:	5d                   	pop    %rbp
    aa35:	c3                   	ret    

000000000000aa36 <safe_lshift_func_int64_t_s_s>:
    aa36:	f3 0f 1e fa          	endbr64 
    aa3a:	55                   	push   %rbp
    aa3b:	48 89 e5             	mov    %rsp,%rbp
    aa3e:	48 89 7d f8          	mov    %rdi,-0x8(%rbp)
    aa42:	89 75 f4             	mov    %esi,-0xc(%rbp)
    aa45:	48 83 7d f8 00       	cmpq   $0x0,-0x8(%rbp)
    aa4a:	78 38                	js     aa84 <safe_lshift_func_int64_t_s_s+0x4e>
    aa4c:	83 7d f4 00          	cmpl   $0x0,-0xc(%rbp)
    aa50:	78 32                	js     aa84 <safe_lshift_func_int64_t_s_s+0x4e>
    aa52:	83 7d f4 1f          	cmpl   $0x1f,-0xc(%rbp)
    aa56:	7f 2c                	jg     aa84 <safe_lshift_func_int64_t_s_s+0x4e>
    aa58:	8b 45 f4             	mov    -0xc(%rbp),%eax
    aa5b:	48 ba ff ff ff ff ff 	movabs $0x7fffffffffffffff,%rdx
    aa62:	ff ff 7f 
    aa65:	89 c1                	mov    %eax,%ecx
    aa67:	48 d3 fa             	sar    %cl,%rdx
    aa6a:	48 89 d0             	mov    %rdx,%rax
    aa6d:	48 39 45 f8          	cmp    %rax,-0x8(%rbp)
    aa71:	7f 11                	jg     aa84 <safe_lshift_func_int64_t_s_s+0x4e>
    aa73:	8b 45 f4             	mov    -0xc(%rbp),%eax
    aa76:	48 8b 55 f8          	mov    -0x8(%rbp),%rdx
    aa7a:	89 c1                	mov    %eax,%ecx
    aa7c:	48 d3 e2             	shl    %cl,%rdx
    aa7f:	48 89 d0             	mov    %rdx,%rax
    aa82:	eb 04                	jmp    aa88 <safe_lshift_func_int64_t_s_s+0x52>
    aa84:	48 8b 45 f8          	mov    -0x8(%rbp),%rax
    aa88:	5d                   	pop    %rbp
    aa89:	c3                   	ret    

000000000000aa8a <safe_lshift_func_int64_t_s_u>:
    aa8a:	f3 0f 1e fa          	endbr64 
    aa8e:	55                   	push   %rbp
    aa8f:	48 89 e5             	mov    %rsp,%rbp
    aa92:	48 89 7d f8          	mov    %rdi,-0x8(%rbp)
    aa96:	89 75 f4             	mov    %esi,-0xc(%rbp)
    aa99:	48 83 7d f8 00       	cmpq   $0x0,-0x8(%rbp)
    aa9e:	78 32                	js     aad2 <safe_lshift_func_int64_t_s_u+0x48>
    aaa0:	83 7d f4 1f          	cmpl   $0x1f,-0xc(%rbp)
    aaa4:	77 2c                	ja     aad2 <safe_lshift_func_int64_t_s_u+0x48>
    aaa6:	8b 45 f4             	mov    -0xc(%rbp),%eax
    aaa9:	48 ba ff ff ff ff ff 	movabs $0x7fffffffffffffff,%rdx
    aab0:	ff ff 7f 
    aab3:	89 c1                	mov    %eax,%ecx
    aab5:	48 d3 fa             	sar    %cl,%rdx
    aab8:	48 89 d0             	mov    %rdx,%rax
    aabb:	48 39 45 f8          	cmp    %rax,-0x8(%rbp)
    aabf:	7f 11                	jg     aad2 <safe_lshift_func_int64_t_s_u+0x48>
    aac1:	8b 45 f4             	mov    -0xc(%rbp),%eax
    aac4:	48 8b 55 f8          	mov    -0x8(%rbp),%rdx
    aac8:	89 c1                	mov    %eax,%ecx
    aaca:	48 d3 e2             	shl    %cl,%rdx
    aacd:	48 89 d0             	mov    %rdx,%rax
    aad0:	eb 04                	jmp    aad6 <safe_lshift_func_int64_t_s_u+0x4c>
    aad2:	48 8b 45 f8          	mov    -0x8(%rbp),%rax
    aad6:	5d                   	pop    %rbp
    aad7:	c3                   	ret    

000000000000aad8 <safe_rshift_func_int64_t_s_s>:
    aad8:	f3 0f 1e fa          	endbr64 
    aadc:	55                   	push   %rbp
    aadd:	48 89 e5             	mov    %rsp,%rbp
    aae0:	48 89 7d f8          	mov    %rdi,-0x8(%rbp)
    aae4:	89 75 f4             	mov    %esi,-0xc(%rbp)
    aae7:	48 83 7d f8 00       	cmpq   $0x0,-0x8(%rbp)
    aaec:	78 1d                	js     ab0b <safe_rshift_func_int64_t_s_s+0x33>
    aaee:	83 7d f4 00          	cmpl   $0x0,-0xc(%rbp)
    aaf2:	78 17                	js     ab0b <safe_rshift_func_int64_t_s_s+0x33>
    aaf4:	83 7d f4 1f          	cmpl   $0x1f,-0xc(%rbp)
    aaf8:	7f 11                	jg     ab0b <safe_rshift_func_int64_t_s_s+0x33>
    aafa:	8b 45 f4             	mov    -0xc(%rbp),%eax
    aafd:	48 8b 55 f8          	mov    -0x8(%rbp),%rdx
    ab01:	89 c1                	mov    %eax,%ecx
    ab03:	48 d3 fa             	sar    %cl,%rdx
    ab06:	48 89 d0             	mov    %rdx,%rax
    ab09:	eb 04                	jmp    ab0f <safe_rshift_func_int64_t_s_s+0x37>
    ab0b:	48 8b 45 f8          	mov    -0x8(%rbp),%rax
    ab0f:	5d                   	pop    %rbp
    ab10:	c3                   	ret    

000000000000ab11 <safe_rshift_func_int64_t_s_u>:
    ab11:	f3 0f 1e fa          	endbr64 
    ab15:	55                   	push   %rbp
    ab16:	48 89 e5             	mov    %rsp,%rbp
    ab19:	48 89 7d f8          	mov    %rdi,-0x8(%rbp)
    ab1d:	89 75 f4             	mov    %esi,-0xc(%rbp)
    ab20:	48 83 7d f8 00       	cmpq   $0x0,-0x8(%rbp)
    ab25:	78 17                	js     ab3e <safe_rshift_func_int64_t_s_u+0x2d>
    ab27:	83 7d f4 1f          	cmpl   $0x1f,-0xc(%rbp)
    ab2b:	77 11                	ja     ab3e <safe_rshift_func_int64_t_s_u+0x2d>
    ab2d:	8b 45 f4             	mov    -0xc(%rbp),%eax
    ab30:	48 8b 55 f8          	mov    -0x8(%rbp),%rdx
    ab34:	89 c1                	mov    %eax,%ecx
    ab36:	48 d3 fa             	sar    %cl,%rdx
    ab39:	48 89 d0             	mov    %rdx,%rax
    ab3c:	eb 04                	jmp    ab42 <safe_rshift_func_int64_t_s_u+0x31>
    ab3e:	48 8b 45 f8          	mov    -0x8(%rbp),%rax
    ab42:	5d                   	pop    %rbp
    ab43:	c3                   	ret    

000000000000ab44 <safe_unary_minus_func_uint8_t_u>:
    ab44:	f3 0f 1e fa          	endbr64 
    ab48:	55                   	push   %rbp
    ab49:	48 89 e5             	mov    %rsp,%rbp
    ab4c:	89 f8                	mov    %edi,%eax
    ab4e:	88 45 fc             	mov    %al,-0x4(%rbp)
    ab51:	0f b6 45 fc          	movzbl -0x4(%rbp),%eax
    ab55:	f7 d8                	neg    %eax
    ab57:	5d                   	pop    %rbp
    ab58:	c3                   	ret    

000000000000ab59 <safe_add_func_uint8_t_u_u>:
    ab59:	f3 0f 1e fa          	endbr64 
    ab5d:	55                   	push   %rbp
    ab5e:	48 89 e5             	mov    %rsp,%rbp
    ab61:	89 fa                	mov    %edi,%edx
    ab63:	89 f0                	mov    %esi,%eax
    ab65:	88 55 fc             	mov    %dl,-0x4(%rbp)
    ab68:	88 45 f8             	mov    %al,-0x8(%rbp)
    ab6b:	0f b6 55 fc          	movzbl -0x4(%rbp),%edx
    ab6f:	0f b6 45 f8          	movzbl -0x8(%rbp),%eax
    ab73:	01 d0                	add    %edx,%eax
    ab75:	5d                   	pop    %rbp
    ab76:	c3                   	ret    

000000000000ab77 <safe_sub_func_uint8_t_u_u>:
    ab77:	f3 0f 1e fa          	endbr64 
    ab7b:	55                   	push   %rbp
    ab7c:	48 89 e5             	mov    %rsp,%rbp
    ab7f:	89 fa                	mov    %edi,%edx
    ab81:	89 f0                	mov    %esi,%eax
    ab83:	88 55 fc             	mov    %dl,-0x4(%rbp)
    ab86:	88 45 f8             	mov    %al,-0x8(%rbp)
    ab89:	0f b6 45 fc          	movzbl -0x4(%rbp),%eax
    ab8d:	2a 45 f8             	sub    -0x8(%rbp),%al
    ab90:	5d                   	pop    %rbp
    ab91:	c3                   	ret    

000000000000ab92 <safe_mul_func_uint8_t_u_u>:
    ab92:	f3 0f 1e fa          	endbr64 
    ab96:	55                   	push   %rbp
    ab97:	48 89 e5             	mov    %rsp,%rbp
    ab9a:	89 fa                	mov    %edi,%edx
    ab9c:	89 f0                	mov    %esi,%eax
    ab9e:	88 55 fc             	mov    %dl,-0x4(%rbp)
    aba1:	88 45 f8             	mov    %al,-0x8(%rbp)
    aba4:	0f b6 45 fc          	movzbl -0x4(%rbp),%eax
    aba8:	f6 65 f8             	mulb   -0x8(%rbp)
    abab:	5d                   	pop    %rbp
    abac:	c3                   	ret    

000000000000abad <safe_mod_func_uint8_t_u_u>:
    abad:	f3 0f 1e fa          	endbr64 
    abb1:	55                   	push   %rbp
    abb2:	48 89 e5             	mov    %rsp,%rbp
    abb5:	89 fa                	mov    %edi,%edx
    abb7:	89 f0                	mov    %esi,%eax
    abb9:	88 55 fc             	mov    %dl,-0x4(%rbp)
    abbc:	88 45 f8             	mov    %al,-0x8(%rbp)
    abbf:	80 7d f8 00          	cmpb   $0x0,-0x8(%rbp)
    abc3:	74 0f                	je     abd4 <safe_mod_func_uint8_t_u_u+0x27>
    abc5:	0f b6 45 fc          	movzbl -0x4(%rbp),%eax
    abc9:	0f b6 c0             	movzbl %al,%eax
    abcc:	f6 75 f8             	divb   -0x8(%rbp)
    abcf:	0f b6 c4             	movzbl %ah,%eax
    abd2:	eb 04                	jmp    abd8 <safe_mod_func_uint8_t_u_u+0x2b>
    abd4:	0f b6 45 fc          	movzbl -0x4(%rbp),%eax
    abd8:	5d                   	pop    %rbp
    abd9:	c3                   	ret    

000000000000abda <safe_div_func_uint8_t_u_u>:
    abda:	f3 0f 1e fa          	endbr64 
    abde:	55                   	push   %rbp
    abdf:	48 89 e5             	mov    %rsp,%rbp
    abe2:	89 fa                	mov    %edi,%edx
    abe4:	89 f0                	mov    %esi,%eax
    abe6:	88 55 fc             	mov    %dl,-0x4(%rbp)
    abe9:	88 45 f8             	mov    %al,-0x8(%rbp)
    abec:	80 7d f8 00          	cmpb   $0x0,-0x8(%rbp)
    abf0:	74 0c                	je     abfe <safe_div_func_uint8_t_u_u+0x24>
    abf2:	0f b6 45 fc          	movzbl -0x4(%rbp),%eax
    abf6:	0f b6 c0             	movzbl %al,%eax
    abf9:	f6 75 f8             	divb   -0x8(%rbp)
    abfc:	eb 04                	jmp    ac02 <safe_div_func_uint8_t_u_u+0x28>
    abfe:	0f b6 45 fc          	movzbl -0x4(%rbp),%eax
    ac02:	5d                   	pop    %rbp
    ac03:	c3                   	ret    

000000000000ac04 <safe_lshift_func_uint8_t_u_s>:
    ac04:	f3 0f 1e fa          	endbr64 
    ac08:	55                   	push   %rbp
    ac09:	48 89 e5             	mov    %rsp,%rbp
    ac0c:	89 f8                	mov    %edi,%eax
    ac0e:	89 75 f8             	mov    %esi,-0x8(%rbp)
    ac11:	88 45 fc             	mov    %al,-0x4(%rbp)
    ac14:	83 7d f8 00          	cmpl   $0x0,-0x8(%rbp)
    ac18:	78 2b                	js     ac45 <safe_lshift_func_uint8_t_u_s+0x41>
    ac1a:	83 7d f8 1f          	cmpl   $0x1f,-0x8(%rbp)
    ac1e:	7f 25                	jg     ac45 <safe_lshift_func_uint8_t_u_s+0x41>
    ac20:	0f b6 55 fc          	movzbl -0x4(%rbp),%edx
    ac24:	8b 45 f8             	mov    -0x8(%rbp),%eax
    ac27:	be ff 00 00 00       	mov    $0xff,%esi
    ac2c:	89 c1                	mov    %eax,%ecx
    ac2e:	d3 fe                	sar    %cl,%esi
    ac30:	89 f0                	mov    %esi,%eax
    ac32:	39 c2                	cmp    %eax,%edx
    ac34:	7f 0f                	jg     ac45 <safe_lshift_func_uint8_t_u_s+0x41>
    ac36:	0f b6 55 fc          	movzbl -0x4(%rbp),%edx
    ac3a:	8b 45 f8             	mov    -0x8(%rbp),%eax
    ac3d:	89 c1                	mov    %eax,%ecx
    ac3f:	d3 e2                	shl    %cl,%edx
    ac41:	89 d0                	mov    %edx,%eax
    ac43:	eb 04                	jmp    ac49 <safe_lshift_func_uint8_t_u_s+0x45>
    ac45:	0f b6 45 fc          	movzbl -0x4(%rbp),%eax
    ac49:	5d                   	pop    %rbp
    ac4a:	c3                   	ret    

000000000000ac4b <safe_lshift_func_uint8_t_u_u>:
    ac4b:	f3 0f 1e fa          	endbr64 
    ac4f:	55                   	push   %rbp
    ac50:	48 89 e5             	mov    %rsp,%rbp
    ac53:	89 f8                	mov    %edi,%eax
    ac55:	89 75 f8             	mov    %esi,-0x8(%rbp)
    ac58:	88 45 fc             	mov    %al,-0x4(%rbp)
    ac5b:	83 7d f8 1f          	cmpl   $0x1f,-0x8(%rbp)
    ac5f:	77 25                	ja     ac86 <safe_lshift_func_uint8_t_u_u+0x3b>
    ac61:	0f b6 55 fc          	movzbl -0x4(%rbp),%edx
    ac65:	8b 45 f8             	mov    -0x8(%rbp),%eax
    ac68:	be ff 00 00 00       	mov    $0xff,%esi
    ac6d:	89 c1                	mov    %eax,%ecx
    ac6f:	d3 fe                	sar    %cl,%esi
    ac71:	89 f0                	mov    %esi,%eax
    ac73:	39 c2                	cmp    %eax,%edx
    ac75:	7f 0f                	jg     ac86 <safe_lshift_func_uint8_t_u_u+0x3b>
    ac77:	0f b6 55 fc          	movzbl -0x4(%rbp),%edx
    ac7b:	8b 45 f8             	mov    -0x8(%rbp),%eax
    ac7e:	89 c1                	mov    %eax,%ecx
    ac80:	d3 e2                	shl    %cl,%edx
    ac82:	89 d0                	mov    %edx,%eax
    ac84:	eb 04                	jmp    ac8a <safe_lshift_func_uint8_t_u_u+0x3f>
    ac86:	0f b6 45 fc          	movzbl -0x4(%rbp),%eax
    ac8a:	5d                   	pop    %rbp
    ac8b:	c3                   	ret    

000000000000ac8c <safe_rshift_func_uint8_t_u_s>:
    ac8c:	f3 0f 1e fa          	endbr64 
    ac90:	55                   	push   %rbp
    ac91:	48 89 e5             	mov    %rsp,%rbp
    ac94:	89 f8                	mov    %edi,%eax
    ac96:	89 75 f8             	mov    %esi,-0x8(%rbp)
    ac99:	88 45 fc             	mov    %al,-0x4(%rbp)
    ac9c:	83 7d f8 00          	cmpl   $0x0,-0x8(%rbp)
    aca0:	78 15                	js     acb7 <safe_rshift_func_uint8_t_u_s+0x2b>
    aca2:	83 7d f8 1f          	cmpl   $0x1f,-0x8(%rbp)
    aca6:	7f 0f                	jg     acb7 <safe_rshift_func_uint8_t_u_s+0x2b>
    aca8:	0f b6 55 fc          	movzbl -0x4(%rbp),%edx
    acac:	8b 45 f8             	mov    -0x8(%rbp),%eax
    acaf:	89 c1                	mov    %eax,%ecx
    acb1:	d3 fa                	sar    %cl,%edx
    acb3:	89 d0                	mov    %edx,%eax
    acb5:	eb 04                	jmp    acbb <safe_rshift_func_uint8_t_u_s+0x2f>
    acb7:	0f b6 45 fc          	movzbl -0x4(%rbp),%eax
    acbb:	5d                   	pop    %rbp
    acbc:	c3                   	ret    

000000000000acbd <safe_rshift_func_uint8_t_u_u>:
    acbd:	f3 0f 1e fa          	endbr64 
    acc1:	55                   	push   %rbp
    acc2:	48 89 e5             	mov    %rsp,%rbp
    acc5:	89 f8                	mov    %edi,%eax
    acc7:	89 75 f8             	mov    %esi,-0x8(%rbp)
    acca:	88 45 fc             	mov    %al,-0x4(%rbp)
    accd:	83 7d f8 1f          	cmpl   $0x1f,-0x8(%rbp)
    acd1:	77 0f                	ja     ace2 <safe_rshift_func_uint8_t_u_u+0x25>
    acd3:	0f b6 55 fc          	movzbl -0x4(%rbp),%edx
    acd7:	8b 45 f8             	mov    -0x8(%rbp),%eax
    acda:	89 c1                	mov    %eax,%ecx
    acdc:	d3 fa                	sar    %cl,%edx
    acde:	89 d0                	mov    %edx,%eax
    ace0:	eb 04                	jmp    ace6 <safe_rshift_func_uint8_t_u_u+0x29>
    ace2:	0f b6 45 fc          	movzbl -0x4(%rbp),%eax
    ace6:	5d                   	pop    %rbp
    ace7:	c3                   	ret    

000000000000ace8 <safe_unary_minus_func_uint16_t_u>:
    ace8:	f3 0f 1e fa          	endbr64 
    acec:	55                   	push   %rbp
    aced:	48 89 e5             	mov    %rsp,%rbp
    acf0:	89 f8                	mov    %edi,%eax
    acf2:	66 89 45 fc          	mov    %ax,-0x4(%rbp)
    acf6:	0f b7 45 fc          	movzwl -0x4(%rbp),%eax
    acfa:	f7 d8                	neg    %eax
    acfc:	5d                   	pop    %rbp
    acfd:	c3                   	ret    

000000000000acfe <safe_add_func_uint16_t_u_u>:
    acfe:	f3 0f 1e fa          	endbr64 
    ad02:	55                   	push   %rbp
    ad03:	48 89 e5             	mov    %rsp,%rbp
    ad06:	89 fa                	mov    %edi,%edx
    ad08:	89 f0                	mov    %esi,%eax
    ad0a:	66 89 55 fc          	mov    %dx,-0x4(%rbp)
    ad0e:	66 89 45 f8          	mov    %ax,-0x8(%rbp)
    ad12:	0f b7 55 fc          	movzwl -0x4(%rbp),%edx
    ad16:	0f b7 45 f8          	movzwl -0x8(%rbp),%eax
    ad1a:	01 d0                	add    %edx,%eax
    ad1c:	5d                   	pop    %rbp
    ad1d:	c3                   	ret    

000000000000ad1e <safe_sub_func_uint16_t_u_u>:
    ad1e:	f3 0f 1e fa          	endbr64 
    ad22:	55                   	push   %rbp
    ad23:	48 89 e5             	mov    %rsp,%rbp
    ad26:	89 fa                	mov    %edi,%edx
    ad28:	89 f0                	mov    %esi,%eax
    ad2a:	66 89 55 fc          	mov    %dx,-0x4(%rbp)
    ad2e:	66 89 45 f8          	mov    %ax,-0x8(%rbp)
    ad32:	0f b7 45 fc          	movzwl -0x4(%rbp),%eax
    ad36:	66 2b 45 f8          	sub    -0x8(%rbp),%ax
    ad3a:	5d                   	pop    %rbp
    ad3b:	c3                   	ret    

000000000000ad3c <safe_mul_func_uint16_t_u_u>:
    ad3c:	f3 0f 1e fa          	endbr64 
    ad40:	55                   	push   %rbp
    ad41:	48 89 e5             	mov    %rsp,%rbp
    ad44:	89 fa                	mov    %edi,%edx
    ad46:	89 f0                	mov    %esi,%eax
    ad48:	66 89 55 fc          	mov    %dx,-0x4(%rbp)
    ad4c:	66 89 45 f8          	mov    %ax,-0x8(%rbp)
    ad50:	0f b7 45 fc          	movzwl -0x4(%rbp),%eax
    ad54:	66 0f af 45 f8       	imul   -0x8(%rbp),%ax
    ad59:	5d                   	pop    %rbp
    ad5a:	c3                   	ret    

000000000000ad5b <safe_mod_func_uint16_t_u_u>:
    ad5b:	f3 0f 1e fa          	endbr64 
    ad5f:	55                   	push   %rbp
    ad60:	48 89 e5             	mov    %rsp,%rbp
    ad63:	89 fa                	mov    %edi,%edx
    ad65:	89 f0                	mov    %esi,%eax
    ad67:	66 89 55 fc          	mov    %dx,-0x4(%rbp)
    ad6b:	66 89 45 f8          	mov    %ax,-0x8(%rbp)
    ad6f:	66 83 7d f8 00       	cmpw   $0x0,-0x8(%rbp)
    ad74:	74 11                	je     ad87 <safe_mod_func_uint16_t_u_u+0x2c>
    ad76:	0f b7 45 fc          	movzwl -0x4(%rbp),%eax
    ad7a:	ba 00 00 00 00       	mov    $0x0,%edx
    ad7f:	66 f7 75 f8          	divw   -0x8(%rbp)
    ad83:	89 d0                	mov    %edx,%eax
    ad85:	eb 04                	jmp    ad8b <safe_mod_func_uint16_t_u_u+0x30>
    ad87:	0f b7 45 fc          	movzwl -0x4(%rbp),%eax
    ad8b:	5d                   	pop    %rbp
    ad8c:	c3                   	ret    

000000000000ad8d <safe_div_func_uint16_t_u_u>:
    ad8d:	f3 0f 1e fa          	endbr64 
    ad91:	55                   	push   %rbp
    ad92:	48 89 e5             	mov    %rsp,%rbp
    ad95:	89 fa                	mov    %edi,%edx
    ad97:	89 f0                	mov    %esi,%eax
    ad99:	66 89 55 fc          	mov    %dx,-0x4(%rbp)
    ad9d:	66 89 45 f8          	mov    %ax,-0x8(%rbp)
    ada1:	66 83 7d f8 00       	cmpw   $0x0,-0x8(%rbp)
    ada6:	74 0f                	je     adb7 <safe_div_func_uint16_t_u_u+0x2a>
    ada8:	0f b7 45 fc          	movzwl -0x4(%rbp),%eax
    adac:	ba 00 00 00 00       	mov    $0x0,%edx
    adb1:	66 f7 75 f8          	divw   -0x8(%rbp)
    adb5:	eb 04                	jmp    adbb <safe_div_func_uint16_t_u_u+0x2e>
    adb7:	0f b7 45 fc          	movzwl -0x4(%rbp),%eax
    adbb:	5d                   	pop    %rbp
    adbc:	c3                   	ret    

000000000000adbd <safe_lshift_func_uint16_t_u_s>:
    adbd:	f3 0f 1e fa          	endbr64 
    adc1:	55                   	push   %rbp
    adc2:	48 89 e5             	mov    %rsp,%rbp
    adc5:	89 f8                	mov    %edi,%eax
    adc7:	89 75 f8             	mov    %esi,-0x8(%rbp)
    adca:	66 89 45 fc          	mov    %ax,-0x4(%rbp)
    adce:	83 7d f8 00          	cmpl   $0x0,-0x8(%rbp)
    add2:	78 2b                	js     adff <safe_lshift_func_uint16_t_u_s+0x42>
    add4:	83 7d f8 1f          	cmpl   $0x1f,-0x8(%rbp)
    add8:	7f 25                	jg     adff <safe_lshift_func_uint16_t_u_s+0x42>
    adda:	0f b7 55 fc          	movzwl -0x4(%rbp),%edx
    adde:	8b 45 f8             	mov    -0x8(%rbp),%eax
    ade1:	be ff ff 00 00       	mov    $0xffff,%esi
    ade6:	89 c1                	mov    %eax,%ecx
    ade8:	d3 fe                	sar    %cl,%esi
    adea:	89 f0                	mov    %esi,%eax
    adec:	39 c2                	cmp    %eax,%edx
    adee:	7f 0f                	jg     adff <safe_lshift_func_uint16_t_u_s+0x42>
    adf0:	0f b7 55 fc          	movzwl -0x4(%rbp),%edx
    adf4:	8b 45 f8             	mov    -0x8(%rbp),%eax
    adf7:	89 c1                	mov    %eax,%ecx
    adf9:	d3 e2                	shl    %cl,%edx
    adfb:	89 d0                	mov    %edx,%eax
    adfd:	eb 04                	jmp    ae03 <safe_lshift_func_uint16_t_u_s+0x46>
    adff:	0f b7 45 fc          	movzwl -0x4(%rbp),%eax
    ae03:	5d                   	pop    %rbp
    ae04:	c3                   	ret    

000000000000ae05 <safe_lshift_func_uint16_t_u_u>:
    ae05:	f3 0f 1e fa          	endbr64 
    ae09:	55                   	push   %rbp
    ae0a:	48 89 e5             	mov    %rsp,%rbp
    ae0d:	89 f8                	mov    %edi,%eax
    ae0f:	89 75 f8             	mov    %esi,-0x8(%rbp)
    ae12:	66 89 45 fc          	mov    %ax,-0x4(%rbp)
    ae16:	83 7d f8 1f          	cmpl   $0x1f,-0x8(%rbp)
    ae1a:	77 25                	ja     ae41 <safe_lshift_func_uint16_t_u_u+0x3c>
    ae1c:	0f b7 55 fc          	movzwl -0x4(%rbp),%edx
    ae20:	8b 45 f8             	mov    -0x8(%rbp),%eax
    ae23:	be ff ff 00 00       	mov    $0xffff,%esi
    ae28:	89 c1                	mov    %eax,%ecx
    ae2a:	d3 fe                	sar    %cl,%esi
    ae2c:	89 f0                	mov    %esi,%eax
    ae2e:	39 c2                	cmp    %eax,%edx
    ae30:	7f 0f                	jg     ae41 <safe_lshift_func_uint16_t_u_u+0x3c>
    ae32:	0f b7 55 fc          	movzwl -0x4(%rbp),%edx
    ae36:	8b 45 f8             	mov    -0x8(%rbp),%eax
    ae39:	89 c1                	mov    %eax,%ecx
    ae3b:	d3 e2                	shl    %cl,%edx
    ae3d:	89 d0                	mov    %edx,%eax
    ae3f:	eb 04                	jmp    ae45 <safe_lshift_func_uint16_t_u_u+0x40>
    ae41:	0f b7 45 fc          	movzwl -0x4(%rbp),%eax
    ae45:	5d                   	pop    %rbp
    ae46:	c3                   	ret    

000000000000ae47 <safe_rshift_func_uint16_t_u_s>:
    ae47:	f3 0f 1e fa          	endbr64 
    ae4b:	55                   	push   %rbp
    ae4c:	48 89 e5             	mov    %rsp,%rbp
    ae4f:	89 f8                	mov    %edi,%eax
    ae51:	89 75 f8             	mov    %esi,-0x8(%rbp)
    ae54:	66 89 45 fc          	mov    %ax,-0x4(%rbp)
    ae58:	83 7d f8 00          	cmpl   $0x0,-0x8(%rbp)
    ae5c:	78 15                	js     ae73 <safe_rshift_func_uint16_t_u_s+0x2c>
    ae5e:	83 7d f8 1f          	cmpl   $0x1f,-0x8(%rbp)
    ae62:	7f 0f                	jg     ae73 <safe_rshift_func_uint16_t_u_s+0x2c>
    ae64:	0f b7 55 fc          	movzwl -0x4(%rbp),%edx
    ae68:	8b 45 f8             	mov    -0x8(%rbp),%eax
    ae6b:	89 c1                	mov    %eax,%ecx
    ae6d:	d3 fa                	sar    %cl,%edx
    ae6f:	89 d0                	mov    %edx,%eax
    ae71:	eb 04                	jmp    ae77 <safe_rshift_func_uint16_t_u_s+0x30>
    ae73:	0f b7 45 fc          	movzwl -0x4(%rbp),%eax
    ae77:	5d                   	pop    %rbp
    ae78:	c3                   	ret    

000000000000ae79 <safe_rshift_func_uint16_t_u_u>:
    ae79:	f3 0f 1e fa          	endbr64 
    ae7d:	55                   	push   %rbp
    ae7e:	48 89 e5             	mov    %rsp,%rbp
    ae81:	89 f8                	mov    %edi,%eax
    ae83:	89 75 f8             	mov    %esi,-0x8(%rbp)
    ae86:	66 89 45 fc          	mov    %ax,-0x4(%rbp)
    ae8a:	83 7d f8 1f          	cmpl   $0x1f,-0x8(%rbp)
    ae8e:	77 0f                	ja     ae9f <safe_rshift_func_uint16_t_u_u+0x26>
    ae90:	0f b7 55 fc          	movzwl -0x4(%rbp),%edx
    ae94:	8b 45 f8             	mov    -0x8(%rbp),%eax
    ae97:	89 c1                	mov    %eax,%ecx
    ae99:	d3 fa                	sar    %cl,%edx
    ae9b:	89 d0                	mov    %edx,%eax
    ae9d:	eb 04                	jmp    aea3 <safe_rshift_func_uint16_t_u_u+0x2a>
    ae9f:	0f b7 45 fc          	movzwl -0x4(%rbp),%eax
    aea3:	5d                   	pop    %rbp
    aea4:	c3                   	ret    

000000000000aea5 <safe_unary_minus_func_uint32_t_u>:
    aea5:	f3 0f 1e fa          	endbr64 
    aea9:	55                   	push   %rbp
    aeaa:	48 89 e5             	mov    %rsp,%rbp
    aead:	89 7d fc             	mov    %edi,-0x4(%rbp)
    aeb0:	8b 45 fc             	mov    -0x4(%rbp),%eax
    aeb3:	f7 d8                	neg    %eax
    aeb5:	5d                   	pop    %rbp
    aeb6:	c3                   	ret    

000000000000aeb7 <safe_add_func_uint32_t_u_u>:
    aeb7:	f3 0f 1e fa          	endbr64 
    aebb:	55                   	push   %rbp
    aebc:	48 89 e5             	mov    %rsp,%rbp
    aebf:	89 7d fc             	mov    %edi,-0x4(%rbp)
    aec2:	89 75 f8             	mov    %esi,-0x8(%rbp)
    aec5:	8b 55 fc             	mov    -0x4(%rbp),%edx
    aec8:	8b 45 f8             	mov    -0x8(%rbp),%eax
    aecb:	01 d0                	add    %edx,%eax
    aecd:	5d                   	pop    %rbp
    aece:	c3                   	ret    

000000000000aecf <safe_sub_func_uint32_t_u_u>:
    aecf:	f3 0f 1e fa          	endbr64 
    aed3:	55                   	push   %rbp
    aed4:	48 89 e5             	mov    %rsp,%rbp
    aed7:	89 7d fc             	mov    %edi,-0x4(%rbp)
    aeda:	89 75 f8             	mov    %esi,-0x8(%rbp)
    aedd:	8b 45 fc             	mov    -0x4(%rbp),%eax
    aee0:	2b 45 f8             	sub    -0x8(%rbp),%eax
    aee3:	5d                   	pop    %rbp
    aee4:	c3                   	ret    

000000000000aee5 <safe_mul_func_uint32_t_u_u>:
    aee5:	f3 0f 1e fa          	endbr64 
    aee9:	55                   	push   %rbp
    aeea:	48 89 e5             	mov    %rsp,%rbp
    aeed:	89 7d fc             	mov    %edi,-0x4(%rbp)
    aef0:	89 75 f8             	mov    %esi,-0x8(%rbp)
    aef3:	8b 45 fc             	mov    -0x4(%rbp),%eax
    aef6:	0f af 45 f8          	imul   -0x8(%rbp),%eax
    aefa:	5d                   	pop    %rbp
    aefb:	c3                   	ret    

000000000000aefc <safe_mod_func_uint32_t_u_u>:
    aefc:	f3 0f 1e fa          	endbr64 
    af00:	55                   	push   %rbp
    af01:	48 89 e5             	mov    %rsp,%rbp
    af04:	89 7d fc             	mov    %edi,-0x4(%rbp)
    af07:	89 75 f8             	mov    %esi,-0x8(%rbp)
    af0a:	83 7d f8 00          	cmpl   $0x0,-0x8(%rbp)
    af0e:	74 0f                	je     af1f <safe_mod_func_uint32_t_u_u+0x23>
    af10:	8b 45 fc             	mov    -0x4(%rbp),%eax
    af13:	ba 00 00 00 00       	mov    $0x0,%edx
    af18:	f7 75 f8             	divl   -0x8(%rbp)
    af1b:	89 d0                	mov    %edx,%eax
    af1d:	eb 03                	jmp    af22 <safe_mod_func_uint32_t_u_u+0x26>
    af1f:	8b 45 fc             	mov    -0x4(%rbp),%eax
    af22:	5d                   	pop    %rbp
    af23:	c3                   	ret    

000000000000af24 <safe_div_func_uint32_t_u_u>:
    af24:	f3 0f 1e fa          	endbr64 
    af28:	55                   	push   %rbp
    af29:	48 89 e5             	mov    %rsp,%rbp
    af2c:	89 7d fc             	mov    %edi,-0x4(%rbp)
    af2f:	89 75 f8             	mov    %esi,-0x8(%rbp)
    af32:	83 7d f8 00          	cmpl   $0x0,-0x8(%rbp)
    af36:	74 0d                	je     af45 <safe_div_func_uint32_t_u_u+0x21>
    af38:	8b 45 fc             	mov    -0x4(%rbp),%eax
    af3b:	ba 00 00 00 00       	mov    $0x0,%edx
    af40:	f7 75 f8             	divl   -0x8(%rbp)
    af43:	eb 03                	jmp    af48 <safe_div_func_uint32_t_u_u+0x24>
    af45:	8b 45 fc             	mov    -0x4(%rbp),%eax
    af48:	5d                   	pop    %rbp
    af49:	c3                   	ret    

000000000000af4a <safe_lshift_func_uint32_t_u_s>:
    af4a:	f3 0f 1e fa          	endbr64 
    af4e:	55                   	push   %rbp
    af4f:	48 89 e5             	mov    %rsp,%rbp
    af52:	89 7d fc             	mov    %edi,-0x4(%rbp)
    af55:	89 75 f8             	mov    %esi,-0x8(%rbp)
    af58:	83 7d f8 00          	cmpl   $0x0,-0x8(%rbp)
    af5c:	78 27                	js     af85 <safe_lshift_func_uint32_t_u_s+0x3b>
    af5e:	83 7d f8 1f          	cmpl   $0x1f,-0x8(%rbp)
    af62:	7f 21                	jg     af85 <safe_lshift_func_uint32_t_u_s+0x3b>
    af64:	8b 45 f8             	mov    -0x8(%rbp),%eax
    af67:	ba ff ff ff ff       	mov    $0xffffffff,%edx
    af6c:	89 c1                	mov    %eax,%ecx
    af6e:	d3 ea                	shr    %cl,%edx
    af70:	89 d0                	mov    %edx,%eax
    af72:	39 45 fc             	cmp    %eax,-0x4(%rbp)
    af75:	77 0e                	ja     af85 <safe_lshift_func_uint32_t_u_s+0x3b>
    af77:	8b 45 f8             	mov    -0x8(%rbp),%eax
    af7a:	8b 55 fc             	mov    -0x4(%rbp),%edx
    af7d:	89 c1                	mov    %eax,%ecx
    af7f:	d3 e2                	shl    %cl,%edx
    af81:	89 d0                	mov    %edx,%eax
    af83:	eb 03                	jmp    af88 <safe_lshift_func_uint32_t_u_s+0x3e>
    af85:	8b 45 fc             	mov    -0x4(%rbp),%eax
    af88:	5d                   	pop    %rbp
    af89:	c3                   	ret    

000000000000af8a <safe_lshift_func_uint32_t_u_u>:
    af8a:	f3 0f 1e fa          	endbr64 
    af8e:	55                   	push   %rbp
    af8f:	48 89 e5             	mov    %rsp,%rbp
    af92:	89 7d fc             	mov    %edi,-0x4(%rbp)
    af95:	89 75 f8             	mov    %esi,-0x8(%rbp)
    af98:	83 7d f8 1f          	cmpl   $0x1f,-0x8(%rbp)
    af9c:	77 21                	ja     afbf <safe_lshift_func_uint32_t_u_u+0x35>
    af9e:	8b 45 f8             	mov    -0x8(%rbp),%eax
    afa1:	ba ff ff ff ff       	mov    $0xffffffff,%edx
    afa6:	89 c1                	mov    %eax,%ecx
    afa8:	d3 ea                	shr    %cl,%edx
    afaa:	89 d0                	mov    %edx,%eax
    afac:	39 45 fc             	cmp    %eax,-0x4(%rbp)
    afaf:	77 0e                	ja     afbf <safe_lshift_func_uint32_t_u_u+0x35>
    afb1:	8b 45 f8             	mov    -0x8(%rbp),%eax
    afb4:	8b 55 fc             	mov    -0x4(%rbp),%edx
    afb7:	89 c1                	mov    %eax,%ecx
    afb9:	d3 e2                	shl    %cl,%edx
    afbb:	89 d0                	mov    %edx,%eax
    afbd:	eb 03                	jmp    afc2 <safe_lshift_func_uint32_t_u_u+0x38>
    afbf:	8b 45 fc             	mov    -0x4(%rbp),%eax
    afc2:	5d                   	pop    %rbp
    afc3:	c3                   	ret    

000000000000afc4 <safe_rshift_func_uint32_t_u_s>:
    afc4:	f3 0f 1e fa          	endbr64 
    afc8:	55                   	push   %rbp
    afc9:	48 89 e5             	mov    %rsp,%rbp
    afcc:	89 7d fc             	mov    %edi,-0x4(%rbp)
    afcf:	89 75 f8             	mov    %esi,-0x8(%rbp)
    afd2:	83 7d f8 00          	cmpl   $0x0,-0x8(%rbp)
    afd6:	78 14                	js     afec <safe_rshift_func_uint32_t_u_s+0x28>
    afd8:	83 7d f8 1f          	cmpl   $0x1f,-0x8(%rbp)
    afdc:	7f 0e                	jg     afec <safe_rshift_func_uint32_t_u_s+0x28>
    afde:	8b 45 f8             	mov    -0x8(%rbp),%eax
    afe1:	8b 55 fc             	mov    -0x4(%rbp),%edx
    afe4:	89 c1                	mov    %eax,%ecx
    afe6:	d3 ea                	shr    %cl,%edx
    afe8:	89 d0                	mov    %edx,%eax
    afea:	eb 03                	jmp    afef <safe_rshift_func_uint32_t_u_s+0x2b>
    afec:	8b 45 fc             	mov    -0x4(%rbp),%eax
    afef:	5d                   	pop    %rbp
    aff0:	c3                   	ret    

000000000000aff1 <safe_rshift_func_uint32_t_u_u>:
    aff1:	f3 0f 1e fa          	endbr64 
    aff5:	55                   	push   %rbp
    aff6:	48 89 e5             	mov    %rsp,%rbp
    aff9:	89 7d fc             	mov    %edi,-0x4(%rbp)
    affc:	89 75 f8             	mov    %esi,-0x8(%rbp)
    afff:	83 7d f8 1f          	cmpl   $0x1f,-0x8(%rbp)
    b003:	77 0e                	ja     b013 <safe_rshift_func_uint32_t_u_u+0x22>
    b005:	8b 45 f8             	mov    -0x8(%rbp),%eax
    b008:	8b 55 fc             	mov    -0x4(%rbp),%edx
    b00b:	89 c1                	mov    %eax,%ecx
    b00d:	d3 ea                	shr    %cl,%edx
    b00f:	89 d0                	mov    %edx,%eax
    b011:	eb 03                	jmp    b016 <safe_rshift_func_uint32_t_u_u+0x25>
    b013:	8b 45 fc             	mov    -0x4(%rbp),%eax
    b016:	5d                   	pop    %rbp
    b017:	c3                   	ret    

000000000000b018 <safe_unary_minus_func_uint64_t_u>:
    b018:	f3 0f 1e fa          	endbr64 
    b01c:	55                   	push   %rbp
    b01d:	48 89 e5             	mov    %rsp,%rbp
    b020:	48 89 7d f8          	mov    %rdi,-0x8(%rbp)
    b024:	48 8b 45 f8          	mov    -0x8(%rbp),%rax
    b028:	48 f7 d8             	neg    %rax
    b02b:	5d                   	pop    %rbp
    b02c:	c3                   	ret    

000000000000b02d <safe_add_func_uint64_t_u_u>:
    b02d:	f3 0f 1e fa          	endbr64 
    b031:	55                   	push   %rbp
    b032:	48 89 e5             	mov    %rsp,%rbp
    b035:	48 89 7d f8          	mov    %rdi,-0x8(%rbp)
    b039:	48 89 75 f0          	mov    %rsi,-0x10(%rbp)
    b03d:	48 8b 55 f8          	mov    -0x8(%rbp),%rdx
    b041:	48 8b 45 f0          	mov    -0x10(%rbp),%rax
    b045:	48 01 d0             	add    %rdx,%rax
    b048:	5d                   	pop    %rbp
    b049:	c3                   	ret    

000000000000b04a <safe_sub_func_uint64_t_u_u>:
    b04a:	f3 0f 1e fa          	endbr64 
    b04e:	55                   	push   %rbp
    b04f:	48 89 e5             	mov    %rsp,%rbp
    b052:	48 89 7d f8          	mov    %rdi,-0x8(%rbp)
    b056:	48 89 75 f0          	mov    %rsi,-0x10(%rbp)
    b05a:	48 8b 45 f8          	mov    -0x8(%rbp),%rax
    b05e:	48 2b 45 f0          	sub    -0x10(%rbp),%rax
    b062:	5d                   	pop    %rbp
    b063:	c3                   	ret    

000000000000b064 <safe_mul_func_uint64_t_u_u>:
    b064:	f3 0f 1e fa          	endbr64 
    b068:	55                   	push   %rbp
    b069:	48 89 e5             	mov    %rsp,%rbp
    b06c:	48 89 7d f8          	mov    %rdi,-0x8(%rbp)
    b070:	48 89 75 f0          	mov    %rsi,-0x10(%rbp)
    b074:	48 8b 45 f8          	mov    -0x8(%rbp),%rax
    b078:	48 0f af 45 f0       	imul   -0x10(%rbp),%rax
    b07d:	5d                   	pop    %rbp
    b07e:	c3                   	ret    

000000000000b07f <safe_mod_func_uint64_t_u_u>:
    b07f:	f3 0f 1e fa          	endbr64 
    b083:	55                   	push   %rbp
    b084:	48 89 e5             	mov    %rsp,%rbp
    b087:	48 89 7d f8          	mov    %rdi,-0x8(%rbp)
    b08b:	48 89 75 f0          	mov    %rsi,-0x10(%rbp)
    b08f:	48 83 7d f0 00       	cmpq   $0x0,-0x10(%rbp)
    b094:	74 12                	je     b0a8 <safe_mod_func_uint64_t_u_u+0x29>
    b096:	48 8b 45 f8          	mov    -0x8(%rbp),%rax
    b09a:	ba 00 00 00 00       	mov    $0x0,%edx
    b09f:	48 f7 75 f0          	divq   -0x10(%rbp)
    b0a3:	48 89 d0             	mov    %rdx,%rax
    b0a6:	eb 04                	jmp    b0ac <safe_mod_func_uint64_t_u_u+0x2d>
    b0a8:	48 8b 45 f8          	mov    -0x8(%rbp),%rax
    b0ac:	5d                   	pop    %rbp
    b0ad:	c3                   	ret    

000000000000b0ae <safe_div_func_uint64_t_u_u>:
    b0ae:	f3 0f 1e fa          	endbr64 
    b0b2:	55                   	push   %rbp
    b0b3:	48 89 e5             	mov    %rsp,%rbp
    b0b6:	48 89 7d f8          	mov    %rdi,-0x8(%rbp)
    b0ba:	48 89 75 f0          	mov    %rsi,-0x10(%rbp)
    b0be:	48 83 7d f0 00       	cmpq   $0x0,-0x10(%rbp)
    b0c3:	74 0f                	je     b0d4 <safe_div_func_uint64_t_u_u+0x26>
    b0c5:	48 8b 45 f8          	mov    -0x8(%rbp),%rax
    b0c9:	ba 00 00 00 00       	mov    $0x0,%edx
    b0ce:	48 f7 75 f0          	divq   -0x10(%rbp)
    b0d2:	eb 04                	jmp    b0d8 <safe_div_func_uint64_t_u_u+0x2a>
    b0d4:	48 8b 45 f8          	mov    -0x8(%rbp),%rax
    b0d8:	5d                   	pop    %rbp
    b0d9:	c3                   	ret    

000000000000b0da <safe_lshift_func_uint64_t_u_s>:
    b0da:	f3 0f 1e fa          	endbr64 
    b0de:	55                   	push   %rbp
    b0df:	48 89 e5             	mov    %rsp,%rbp
    b0e2:	48 89 7d f8          	mov    %rdi,-0x8(%rbp)
    b0e6:	89 75 f4             	mov    %esi,-0xc(%rbp)
    b0e9:	83 7d f4 00          	cmpl   $0x0,-0xc(%rbp)
    b0ed:	78 2f                	js     b11e <safe_lshift_func_uint64_t_u_s+0x44>
    b0ef:	83 7d f4 1f          	cmpl   $0x1f,-0xc(%rbp)
    b0f3:	7f 29                	jg     b11e <safe_lshift_func_uint64_t_u_s+0x44>
    b0f5:	8b 45 f4             	mov    -0xc(%rbp),%eax
    b0f8:	48 c7 c2 ff ff ff ff 	mov    $0xffffffffffffffff,%rdx
    b0ff:	89 c1                	mov    %eax,%ecx
    b101:	48 d3 ea             	shr    %cl,%rdx
    b104:	48 89 d0             	mov    %rdx,%rax
    b107:	48 39 45 f8          	cmp    %rax,-0x8(%rbp)
    b10b:	77 11                	ja     b11e <safe_lshift_func_uint64_t_u_s+0x44>
    b10d:	8b 45 f4             	mov    -0xc(%rbp),%eax
    b110:	48 8b 55 f8          	mov    -0x8(%rbp),%rdx
    b114:	89 c1                	mov    %eax,%ecx
    b116:	48 d3 e2             	shl    %cl,%rdx
    b119:	48 89 d0             	mov    %rdx,%rax
    b11c:	eb 04                	jmp    b122 <safe_lshift_func_uint64_t_u_s+0x48>
    b11e:	48 8b 45 f8          	mov    -0x8(%rbp),%rax
    b122:	5d                   	pop    %rbp
    b123:	c3                   	ret    

000000000000b124 <safe_lshift_func_uint64_t_u_u>:
    b124:	f3 0f 1e fa          	endbr64 
    b128:	55                   	push   %rbp
    b129:	48 89 e5             	mov    %rsp,%rbp
    b12c:	48 89 7d f8          	mov    %rdi,-0x8(%rbp)
    b130:	89 75 f4             	mov    %esi,-0xc(%rbp)
    b133:	83 7d f4 1f          	cmpl   $0x1f,-0xc(%rbp)
    b137:	77 29                	ja     b162 <safe_lshift_func_uint64_t_u_u+0x3e>
    b139:	8b 45 f4             	mov    -0xc(%rbp),%eax
    b13c:	48 c7 c2 ff ff ff ff 	mov    $0xffffffffffffffff,%rdx
    b143:	89 c1                	mov    %eax,%ecx
    b145:	48 d3 ea             	shr    %cl,%rdx
    b148:	48 89 d0             	mov    %rdx,%rax
    b14b:	48 39 45 f8          	cmp    %rax,-0x8(%rbp)
    b14f:	77 11                	ja     b162 <safe_lshift_func_uint64_t_u_u+0x3e>
    b151:	8b 45 f4             	mov    -0xc(%rbp),%eax
    b154:	48 8b 55 f8          	mov    -0x8(%rbp),%rdx
    b158:	89 c1                	mov    %eax,%ecx
    b15a:	48 d3 e2             	shl    %cl,%rdx
    b15d:	48 89 d0             	mov    %rdx,%rax
    b160:	eb 04                	jmp    b166 <safe_lshift_func_uint64_t_u_u+0x42>
    b162:	48 8b 45 f8          	mov    -0x8(%rbp),%rax
    b166:	5d                   	pop    %rbp
    b167:	c3                   	ret    

000000000000b168 <safe_rshift_func_uint64_t_u_s>:
    b168:	f3 0f 1e fa          	endbr64 
    b16c:	55                   	push   %rbp
    b16d:	48 89 e5             	mov    %rsp,%rbp
    b170:	48 89 7d f8          	mov    %rdi,-0x8(%rbp)
    b174:	89 75 f4             	mov    %esi,-0xc(%rbp)
    b177:	83 7d f4 00          	cmpl   $0x0,-0xc(%rbp)
    b17b:	78 17                	js     b194 <safe_rshift_func_uint64_t_u_s+0x2c>
    b17d:	83 7d f4 1f          	cmpl   $0x1f,-0xc(%rbp)
    b181:	7f 11                	jg     b194 <safe_rshift_func_uint64_t_u_s+0x2c>
    b183:	8b 45 f4             	mov    -0xc(%rbp),%eax
    b186:	48 8b 55 f8          	mov    -0x8(%rbp),%rdx
    b18a:	89 c1                	mov    %eax,%ecx
    b18c:	48 d3 ea             	shr    %cl,%rdx
    b18f:	48 89 d0             	mov    %rdx,%rax
    b192:	eb 04                	jmp    b198 <safe_rshift_func_uint64_t_u_s+0x30>
    b194:	48 8b 45 f8          	mov    -0x8(%rbp),%rax
    b198:	5d                   	pop    %rbp
    b199:	c3                   	ret    

000000000000b19a <safe_rshift_func_uint64_t_u_u>:
    b19a:	f3 0f 1e fa          	endbr64 
    b19e:	55                   	push   %rbp
    b19f:	48 89 e5             	mov    %rsp,%rbp
    b1a2:	48 89 7d f8          	mov    %rdi,-0x8(%rbp)
    b1a6:	89 75 f4             	mov    %esi,-0xc(%rbp)
    b1a9:	83 7d f4 1f          	cmpl   $0x1f,-0xc(%rbp)
    b1ad:	77 11                	ja     b1c0 <safe_rshift_func_uint64_t_u_u+0x26>
    b1af:	8b 45 f4             	mov    -0xc(%rbp),%eax
    b1b2:	48 8b 55 f8          	mov    -0x8(%rbp),%rdx
    b1b6:	89 c1                	mov    %eax,%ecx
    b1b8:	48 d3 ea             	shr    %cl,%rdx
    b1bb:	48 89 d0             	mov    %rdx,%rax
    b1be:	eb 04                	jmp    b1c4 <safe_rshift_func_uint64_t_u_u+0x2a>
    b1c0:	48 8b 45 f8          	mov    -0x8(%rbp),%rax
    b1c4:	5d                   	pop    %rbp
    b1c5:	c3                   	ret    

000000000000b1c6 <safe_add_func_float_f_f>:
    b1c6:	f3 0f 1e fa          	endbr64 
    b1ca:	55                   	push   %rbp
    b1cb:	48 89 e5             	mov    %rsp,%rbp
    b1ce:	f3 0f 11 45 fc       	movss  %xmm0,-0x4(%rbp)
    b1d3:	f3 0f 11 4d f8       	movss  %xmm1,-0x8(%rbp)
    b1d8:	f3 0f 10 4d fc       	movss  -0x4(%rbp),%xmm1
    b1dd:	f3 0f 10 05 bb 8d 01 	movss  0x18dbb(%rip),%xmm0        # 23fa0 <l_2131.1+0x240>
    b1e4:	00 
    b1e5:	f3 0f 59 c8          	mulss  %xmm0,%xmm1
    b1e9:	f3 0f 10 55 f8       	movss  -0x8(%rbp),%xmm2
    b1ee:	f3 0f 10 05 aa 8d 01 	movss  0x18daa(%rip),%xmm0        # 23fa0 <l_2131.1+0x240>
    b1f5:	00 
    b1f6:	f3 0f 59 c2          	mulss  %xmm2,%xmm0
    b1fa:	f3 0f 58 c1          	addss  %xmm1,%xmm0
    b1fe:	f3 0f 10 0d aa 8d 01 	movss  0x18daa(%rip),%xmm1        # 23fb0 <l_2131.1+0x250>
    b205:	00 
    b206:	0f 54 c1             	andps  %xmm1,%xmm0
    b209:	0f 2f 05 b0 8d 01 00 	comiss 0x18db0(%rip),%xmm0        # 23fc0 <l_2131.1+0x260>
    b210:	76 07                	jbe    b219 <safe_add_func_float_f_f+0x53>
    b212:	f3 0f 10 45 fc       	movss  -0x4(%rbp),%xmm0
    b217:	eb 0a                	jmp    b223 <safe_add_func_float_f_f+0x5d>
    b219:	f3 0f 10 45 fc       	movss  -0x4(%rbp),%xmm0
    b21e:	f3 0f 58 45 f8       	addss  -0x8(%rbp),%xmm0
    b223:	5d                   	pop    %rbp
    b224:	c3                   	ret    

000000000000b225 <safe_sub_func_float_f_f>:
    b225:	f3 0f 1e fa          	endbr64 
    b229:	55                   	push   %rbp
    b22a:	48 89 e5             	mov    %rsp,%rbp
    b22d:	f3 0f 11 45 fc       	movss  %xmm0,-0x4(%rbp)
    b232:	f3 0f 11 4d f8       	movss  %xmm1,-0x8(%rbp)
    b237:	f3 0f 10 4d fc       	movss  -0x4(%rbp),%xmm1
    b23c:	f3 0f 10 05 5c 8d 01 	movss  0x18d5c(%rip),%xmm0        # 23fa0 <l_2131.1+0x240>
    b243:	00 
    b244:	f3 0f 59 c1          	mulss  %xmm1,%xmm0
    b248:	f3 0f 10 55 f8       	movss  -0x8(%rbp),%xmm2
    b24d:	f3 0f 10 0d 4b 8d 01 	movss  0x18d4b(%rip),%xmm1        # 23fa0 <l_2131.1+0x240>
    b254:	00 
    b255:	f3 0f 59 ca          	mulss  %xmm2,%xmm1
    b259:	f3 0f 5c c1          	subss  %xmm1,%xmm0
    b25d:	f3 0f 10 0d 4b 8d 01 	movss  0x18d4b(%rip),%xmm1        # 23fb0 <l_2131.1+0x250>
    b264:	00 
    b265:	0f 54 c1             	andps  %xmm1,%xmm0
    b268:	0f 2f 05 51 8d 01 00 	comiss 0x18d51(%rip),%xmm0        # 23fc0 <l_2131.1+0x260>
    b26f:	76 07                	jbe    b278 <safe_sub_func_float_f_f+0x53>
    b271:	f3 0f 10 45 fc       	movss  -0x4(%rbp),%xmm0
    b276:	eb 0a                	jmp    b282 <safe_sub_func_float_f_f+0x5d>
    b278:	f3 0f 10 45 fc       	movss  -0x4(%rbp),%xmm0
    b27d:	f3 0f 5c 45 f8       	subss  -0x8(%rbp),%xmm0
    b282:	5d                   	pop    %rbp
    b283:	c3                   	ret    

000000000000b284 <safe_mul_func_float_f_f>:
    b284:	f3 0f 1e fa          	endbr64 
    b288:	55                   	push   %rbp
    b289:	48 89 e5             	mov    %rsp,%rbp
    b28c:	f3 0f 11 45 fc       	movss  %xmm0,-0x4(%rbp)
    b291:	f3 0f 11 4d f8       	movss  %xmm1,-0x8(%rbp)
    b296:	f3 0f 10 4d fc       	movss  -0x4(%rbp),%xmm1
    b29b:	f3 0f 10 05 21 8d 01 	movss  0x18d21(%rip),%xmm0        # 23fc4 <l_2131.1+0x264>
    b2a2:	00 
    b2a3:	f3 0f 59 c8          	mulss  %xmm0,%xmm1
    b2a7:	f3 0f 10 55 f8       	movss  -0x8(%rbp),%xmm2
    b2ac:	f3 0f 10 05 14 8d 01 	movss  0x18d14(%rip),%xmm0        # 23fc8 <l_2131.1+0x268>
    b2b3:	00 
    b2b4:	f3 0f 59 c2          	mulss  %xmm2,%xmm0
    b2b8:	f3 0f 59 c1          	mulss  %xmm1,%xmm0
    b2bc:	f3 0f 10 0d ec 8c 01 	movss  0x18cec(%rip),%xmm1        # 23fb0 <l_2131.1+0x250>
    b2c3:	00 
    b2c4:	0f 54 c1             	andps  %xmm1,%xmm0
    b2c7:	0f 2f 05 fe 8c 01 00 	comiss 0x18cfe(%rip),%xmm0        # 23fcc <l_2131.1+0x26c>
    b2ce:	76 07                	jbe    b2d7 <safe_mul_func_float_f_f+0x53>
    b2d0:	f3 0f 10 45 fc       	movss  -0x4(%rbp),%xmm0
    b2d5:	eb 0a                	jmp    b2e1 <safe_mul_func_float_f_f+0x5d>
    b2d7:	f3 0f 10 45 fc       	movss  -0x4(%rbp),%xmm0
    b2dc:	f3 0f 59 45 f8       	mulss  -0x8(%rbp),%xmm0
    b2e1:	5d                   	pop    %rbp
    b2e2:	c3                   	ret    

000000000000b2e3 <safe_div_func_float_f_f>:
    b2e3:	f3 0f 1e fa          	endbr64 
    b2e7:	55                   	push   %rbp
    b2e8:	48 89 e5             	mov    %rsp,%rbp
    b2eb:	f3 0f 11 45 fc       	movss  %xmm0,-0x4(%rbp)
    b2f0:	f3 0f 11 4d f8       	movss  %xmm1,-0x8(%rbp)
    b2f5:	f3 0f 10 45 f8       	movss  -0x8(%rbp),%xmm0
    b2fa:	f3 0f 10 0d ae 8c 01 	movss  0x18cae(%rip),%xmm1        # 23fb0 <l_2131.1+0x250>
    b301:	00 
    b302:	0f 54 c8             	andps  %xmm0,%xmm1
    b305:	f3 0f 10 05 c3 8c 01 	movss  0x18cc3(%rip),%xmm0        # 23fd0 <l_2131.1+0x270>
    b30c:	00 
    b30d:	0f 2f c1             	comiss %xmm1,%xmm0
    b310:	0f 97 c0             	seta   %al
    b313:	83 f0 01             	xor    $0x1,%eax
    b316:	84 c0                	test   %al,%al
    b318:	75 56                	jne    b370 <safe_div_func_float_f_f+0x8d>
    b31a:	66 0f ef c0          	pxor   %xmm0,%xmm0
    b31e:	0f 2e 45 f8          	ucomiss -0x8(%rbp),%xmm0
    b322:	7a 0a                	jp     b32e <safe_div_func_float_f_f+0x4b>
    b324:	66 0f ef c0          	pxor   %xmm0,%xmm0
    b328:	0f 2e 45 f8          	ucomiss -0x8(%rbp),%xmm0
    b32c:	74 4e                	je     b37c <safe_div_func_float_f_f+0x99>
    b32e:	f3 0f 10 4d fc       	movss  -0x4(%rbp),%xmm1
    b333:	f3 0f 10 05 99 8c 01 	movss  0x18c99(%rip),%xmm0        # 23fd4 <l_2131.1+0x274>
    b33a:	00 
    b33b:	f3 0f 59 c1          	mulss  %xmm1,%xmm0
    b33f:	f3 0f 10 55 f8       	movss  -0x8(%rbp),%xmm2
    b344:	f3 0f 10 0d 8c 8c 01 	movss  0x18c8c(%rip),%xmm1        # 23fd8 <l_2131.1+0x278>
    b34b:	00 
    b34c:	f3 0f 59 ca          	mulss  %xmm2,%xmm1
    b350:	f3 0f 5e c1          	divss  %xmm1,%xmm0
    b354:	f3 0f 10 0d 54 8c 01 	movss  0x18c54(%rip),%xmm1        # 23fb0 <l_2131.1+0x250>
    b35b:	00 
    b35c:	0f 54 c1             	andps  %xmm1,%xmm0
    b35f:	0f 2f 05 76 8c 01 00 	comiss 0x18c76(%rip),%xmm0        # 23fdc <l_2131.1+0x27c>
    b366:	0f 97 c0             	seta   %al
    b369:	83 f0 01             	xor    $0x1,%eax
    b36c:	84 c0                	test   %al,%al
    b36e:	74 0c                	je     b37c <safe_div_func_float_f_f+0x99>
    b370:	f3 0f 10 45 fc       	movss  -0x4(%rbp),%xmm0
    b375:	f3 0f 5e 45 f8       	divss  -0x8(%rbp),%xmm0
    b37a:	eb 05                	jmp    b381 <safe_div_func_float_f_f+0x9e>
    b37c:	f3 0f 10 45 fc       	movss  -0x4(%rbp),%xmm0
    b381:	5d                   	pop    %rbp
    b382:	c3                   	ret    

000000000000b383 <safe_add_func_double_f_f>:
    b383:	f3 0f 1e fa          	endbr64 
    b387:	55                   	push   %rbp
    b388:	48 89 e5             	mov    %rsp,%rbp
    b38b:	f2 0f 11 45 f8       	movsd  %xmm0,-0x8(%rbp)
    b390:	f2 0f 11 4d f0       	movsd  %xmm1,-0x10(%rbp)
    b395:	f2 0f 10 4d f8       	movsd  -0x8(%rbp),%xmm1
    b39a:	f2 0f 10 05 3e 8c 01 	movsd  0x18c3e(%rip),%xmm0        # 23fe0 <l_2131.1+0x280>
    b3a1:	00 
    b3a2:	f2 0f 59 c8          	mulsd  %xmm0,%xmm1
    b3a6:	f2 0f 10 55 f0       	movsd  -0x10(%rbp),%xmm2
    b3ab:	f2 0f 10 05 2d 8c 01 	movsd  0x18c2d(%rip),%xmm0        # 23fe0 <l_2131.1+0x280>
    b3b2:	00 
    b3b3:	f2 0f 59 c2          	mulsd  %xmm2,%xmm0
    b3b7:	f2 0f 58 c1          	addsd  %xmm1,%xmm0
    b3bb:	f3 0f 7e 0d 2d 8c 01 	movq   0x18c2d(%rip),%xmm1        # 23ff0 <l_2131.1+0x290>
    b3c2:	00 
    b3c3:	66 0f 54 c1          	andpd  %xmm1,%xmm0
    b3c7:	66 0f 2f 05 31 8c 01 	comisd 0x18c31(%rip),%xmm0        # 24000 <l_2131.1+0x2a0>
    b3ce:	00 
    b3cf:	76 07                	jbe    b3d8 <safe_add_func_double_f_f+0x55>
    b3d1:	f2 0f 10 45 f8       	movsd  -0x8(%rbp),%xmm0
    b3d6:	eb 0a                	jmp    b3e2 <safe_add_func_double_f_f+0x5f>
    b3d8:	f2 0f 10 45 f8       	movsd  -0x8(%rbp),%xmm0
    b3dd:	f2 0f 58 45 f0       	addsd  -0x10(%rbp),%xmm0
    b3e2:	66 48 0f 7e c0       	movq   %xmm0,%rax
    b3e7:	66 48 0f 6e c0       	movq   %rax,%xmm0
    b3ec:	5d                   	pop    %rbp
    b3ed:	c3                   	ret    

000000000000b3ee <safe_sub_func_double_f_f>:
    b3ee:	f3 0f 1e fa          	endbr64 
    b3f2:	55                   	push   %rbp
    b3f3:	48 89 e5             	mov    %rsp,%rbp
    b3f6:	f2 0f 11 45 f8       	movsd  %xmm0,-0x8(%rbp)
    b3fb:	f2 0f 11 4d f0       	movsd  %xmm1,-0x10(%rbp)
    b400:	f2 0f 10 4d f8       	movsd  -0x8(%rbp),%xmm1
    b405:	f2 0f 10 05 d3 8b 01 	movsd  0x18bd3(%rip),%xmm0        # 23fe0 <l_2131.1+0x280>
    b40c:	00 
    b40d:	f2 0f 59 c1          	mulsd  %xmm1,%xmm0
    b411:	f2 0f 10 55 f0       	movsd  -0x10(%rbp),%xmm2
    b416:	f2 0f 10 0d c2 8b 01 	movsd  0x18bc2(%rip),%xmm1        # 23fe0 <l_2131.1+0x280>
    b41d:	00 
    b41e:	f2 0f 59 ca          	mulsd  %xmm2,%xmm1
    b422:	f2 0f 5c c1          	subsd  %xmm1,%xmm0
    b426:	f3 0f 7e 0d c2 8b 01 	movq   0x18bc2(%rip),%xmm1        # 23ff0 <l_2131.1+0x290>
    b42d:	00 
    b42e:	66 0f 54 c1          	andpd  %xmm1,%xmm0
    b432:	66 0f 2f 05 c6 8b 01 	comisd 0x18bc6(%rip),%xmm0        # 24000 <l_2131.1+0x2a0>
    b439:	00 
    b43a:	76 07                	jbe    b443 <safe_sub_func_double_f_f+0x55>
    b43c:	f2 0f 10 45 f8       	movsd  -0x8(%rbp),%xmm0
    b441:	eb 0a                	jmp    b44d <safe_sub_func_double_f_f+0x5f>
    b443:	f2 0f 10 45 f8       	movsd  -0x8(%rbp),%xmm0
    b448:	f2 0f 5c 45 f0       	subsd  -0x10(%rbp),%xmm0
    b44d:	66 48 0f 7e c0       	movq   %xmm0,%rax
    b452:	66 48 0f 6e c0       	movq   %rax,%xmm0
    b457:	5d                   	pop    %rbp
    b458:	c3                   	ret    

000000000000b459 <safe_mul_func_double_f_f>:
    b459:	f3 0f 1e fa          	endbr64 
    b45d:	55                   	push   %rbp
    b45e:	48 89 e5             	mov    %rsp,%rbp
    b461:	f2 0f 11 45 f8       	movsd  %xmm0,-0x8(%rbp)
    b466:	f2 0f 11 4d f0       	movsd  %xmm1,-0x10(%rbp)
    b46b:	f2 0f 10 4d f8       	movsd  -0x8(%rbp),%xmm1
    b470:	f2 0f 10 05 90 8b 01 	movsd  0x18b90(%rip),%xmm0        # 24008 <l_2131.1+0x2a8>
    b477:	00 
    b478:	f2 0f 59 c8          	mulsd  %xmm0,%xmm1
    b47c:	f2 0f 10 55 f0       	movsd  -0x10(%rbp),%xmm2
    b481:	f2 0f 10 05 87 8b 01 	movsd  0x18b87(%rip),%xmm0        # 24010 <l_2131.1+0x2b0>
    b488:	00 
    b489:	f2 0f 59 c2          	mulsd  %xmm2,%xmm0
    b48d:	f2 0f 59 c1          	mulsd  %xmm1,%xmm0
    b491:	f3 0f 7e 0d 57 8b 01 	movq   0x18b57(%rip),%xmm1        # 23ff0 <l_2131.1+0x290>
    b498:	00 
    b499:	66 0f 54 c1          	andpd  %xmm1,%xmm0
    b49d:	66 0f 2f 05 73 8b 01 	comisd 0x18b73(%rip),%xmm0        # 24018 <l_2131.1+0x2b8>
    b4a4:	00 
    b4a5:	76 07                	jbe    b4ae <safe_mul_func_double_f_f+0x55>
    b4a7:	f2 0f 10 45 f8       	movsd  -0x8(%rbp),%xmm0
    b4ac:	eb 0a                	jmp    b4b8 <safe_mul_func_double_f_f+0x5f>
    b4ae:	f2 0f 10 45 f8       	movsd  -0x8(%rbp),%xmm0
    b4b3:	f2 0f 59 45 f0       	mulsd  -0x10(%rbp),%xmm0
    b4b8:	66 48 0f 7e c0       	movq   %xmm0,%rax
    b4bd:	66 48 0f 6e c0       	movq   %rax,%xmm0
    b4c2:	5d                   	pop    %rbp
    b4c3:	c3                   	ret    

000000000000b4c4 <safe_div_func_double_f_f>:
    b4c4:	f3 0f 1e fa          	endbr64 
    b4c8:	55                   	push   %rbp
    b4c9:	48 89 e5             	mov    %rsp,%rbp
    b4cc:	f2 0f 11 45 f8       	movsd  %xmm0,-0x8(%rbp)
    b4d1:	f2 0f 11 4d f0       	movsd  %xmm1,-0x10(%rbp)
    b4d6:	f2 0f 10 45 f0       	movsd  -0x10(%rbp),%xmm0
    b4db:	f3 0f 7e 0d 0d 8b 01 	movq   0x18b0d(%rip),%xmm1        # 23ff0 <l_2131.1+0x290>
    b4e2:	00 
    b4e3:	66 0f 54 c8          	andpd  %xmm0,%xmm1
    b4e7:	f2 0f 10 05 31 8b 01 	movsd  0x18b31(%rip),%xmm0        # 24020 <l_2131.1+0x2c0>
    b4ee:	00 
    b4ef:	66 0f 2f c1          	comisd %xmm1,%xmm0
    b4f3:	0f 97 c0             	seta   %al
    b4f6:	83 f0 01             	xor    $0x1,%eax
    b4f9:	84 c0                	test   %al,%al
    b4fb:	75 5a                	jne    b557 <safe_div_func_double_f_f+0x93>
    b4fd:	66 0f ef c0          	pxor   %xmm0,%xmm0
    b501:	66 0f 2e 45 f0       	ucomisd -0x10(%rbp),%xmm0
    b506:	7a 0b                	jp     b513 <safe_div_func_double_f_f+0x4f>
    b508:	66 0f ef c0          	pxor   %xmm0,%xmm0
    b50c:	66 0f 2e 45 f0       	ucomisd -0x10(%rbp),%xmm0
    b511:	74 50                	je     b563 <safe_div_func_double_f_f+0x9f>
    b513:	f2 0f 10 4d f8       	movsd  -0x8(%rbp),%xmm1
    b518:	f2 0f 10 05 08 8b 01 	movsd  0x18b08(%rip),%xmm0        # 24028 <l_2131.1+0x2c8>
    b51f:	00 
    b520:	f2 0f 59 c1          	mulsd  %xmm1,%xmm0
    b524:	f2 0f 10 55 f0       	movsd  -0x10(%rbp),%xmm2
    b529:	f2 0f 10 0d ff 8a 01 	movsd  0x18aff(%rip),%xmm1        # 24030 <l_2131.1+0x2d0>
    b530:	00 
    b531:	f2 0f 59 ca          	mulsd  %xmm2,%xmm1
    b535:	f2 0f 5e c1          	divsd  %xmm1,%xmm0
    b539:	f3 0f 7e 0d af 8a 01 	movq   0x18aaf(%rip),%xmm1        # 23ff0 <l_2131.1+0x290>
    b540:	00 
    b541:	66 0f 54 c1          	andpd  %xmm1,%xmm0
    b545:	66 0f 2f 05 eb 8a 01 	comisd 0x18aeb(%rip),%xmm0        # 24038 <l_2131.1+0x2d8>
    b54c:	00 
    b54d:	0f 97 c0             	seta   %al
    b550:	83 f0 01             	xor    $0x1,%eax
    b553:	84 c0                	test   %al,%al
    b555:	74 0c                	je     b563 <safe_div_func_double_f_f+0x9f>
    b557:	f2 0f 10 45 f8       	movsd  -0x8(%rbp),%xmm0
    b55c:	f2 0f 5e 45 f0       	divsd  -0x10(%rbp),%xmm0
    b561:	eb 05                	jmp    b568 <safe_div_func_double_f_f+0xa4>
    b563:	f2 0f 10 45 f8       	movsd  -0x8(%rbp),%xmm0
    b568:	66 48 0f 7e c0       	movq   %xmm0,%rax
    b56d:	66 48 0f 6e c0       	movq   %rax,%xmm0
    b572:	5d                   	pop    %rbp
    b573:	c3                   	ret    

000000000000b574 <safe_convert_func_float_to_int32_t>:
    b574:	f3 0f 1e fa          	endbr64 
    b578:	55                   	push   %rbp
    b579:	48 89 e5             	mov    %rsp,%rbp
    b57c:	f3 0f 11 45 fc       	movss  %xmm0,-0x4(%rbp)
    b581:	f3 0f 10 05 b7 8a 01 	movss  0x18ab7(%rip),%xmm0        # 24040 <l_2131.1+0x2e0>
    b588:	00 
    b589:	0f 2f 45 fc          	comiss -0x4(%rbp),%xmm0
    b58d:	0f 93 c0             	setae  %al
    b590:	83 f0 01             	xor    $0x1,%eax
    b593:	84 c0                	test   %al,%al
    b595:	74 21                	je     b5b8 <safe_convert_func_float_to_int32_t+0x44>
    b597:	f3 0f 10 45 fc       	movss  -0x4(%rbp),%xmm0
    b59c:	0f 2f 05 a1 8a 01 00 	comiss 0x18aa1(%rip),%xmm0        # 24044 <l_2131.1+0x2e4>
    b5a3:	0f 93 c0             	setae  %al
    b5a6:	83 f0 01             	xor    $0x1,%eax
    b5a9:	84 c0                	test   %al,%al
    b5ab:	74 0b                	je     b5b8 <safe_convert_func_float_to_int32_t+0x44>
    b5ad:	f3 0f 10 45 fc       	movss  -0x4(%rbp),%xmm0
    b5b2:	f3 0f 2c c0          	cvttss2si %xmm0,%eax
    b5b6:	eb 05                	jmp    b5bd <safe_convert_func_float_to_int32_t+0x49>
    b5b8:	b8 ff ff ff 7f       	mov    $0x7fffffff,%eax
    b5bd:	5d                   	pop    %rbp
    b5be:	c3                   	ret    

000000000000b5bf <crc32_gentab>:
    b5bf:	f3 0f 1e fa          	endbr64 
    b5c3:	55                   	push   %rbp
    b5c4:	48 89 e5             	mov    %rsp,%rbp
    b5c7:	c7 45 fc 20 83 b8 ed 	movl   $0xedb88320,-0x4(%rbp)
    b5ce:	c7 45 f4 00 00 00 00 	movl   $0x0,-0xc(%rbp)
    b5d5:	eb 51                	jmp    b628 <crc32_gentab+0x69>
    b5d7:	8b 45 f4             	mov    -0xc(%rbp),%eax
    b5da:	89 45 f0             	mov    %eax,-0x10(%rbp)
    b5dd:	c7 45 f8 08 00 00 00 	movl   $0x8,-0x8(%rbp)
    b5e4:	eb 1e                	jmp    b604 <crc32_gentab+0x45>
    b5e6:	8b 45 f0             	mov    -0x10(%rbp),%eax
    b5e9:	83 e0 01             	and    $0x1,%eax
    b5ec:	85 c0                	test   %eax,%eax
    b5ee:	74 0d                	je     b5fd <crc32_gentab+0x3e>
    b5f0:	8b 45 f0             	mov    -0x10(%rbp),%eax
    b5f3:	d1 e8                	shr    %eax
    b5f5:	33 45 fc             	xor    -0x4(%rbp),%eax
    b5f8:	89 45 f0             	mov    %eax,-0x10(%rbp)
    b5fb:	eb 03                	jmp    b600 <crc32_gentab+0x41>
    b5fd:	d1 6d f0             	shrl   -0x10(%rbp)
    b600:	83 6d f8 01          	subl   $0x1,-0x8(%rbp)
    b604:	83 7d f8 00          	cmpl   $0x0,-0x8(%rbp)
    b608:	7f dc                	jg     b5e6 <crc32_gentab+0x27>
    b60a:	8b 45 f4             	mov    -0xc(%rbp),%eax
    b60d:	48 98                	cltq   
    b60f:	48 8d 0c 85 00 00 00 	lea    0x0(,%rax,4),%rcx
    b616:	00 
    b617:	48 8d 15 42 2c 02 00 	lea    0x22c42(%rip),%rdx        # 2e260 <crc32_tab>
    b61e:	8b 45 f0             	mov    -0x10(%rbp),%eax
    b621:	89 04 11             	mov    %eax,(%rcx,%rdx,1)
    b624:	83 45 f4 01          	addl   $0x1,-0xc(%rbp)
    b628:	81 7d f4 ff 00 00 00 	cmpl   $0xff,-0xc(%rbp)
    b62f:	7e a6                	jle    b5d7 <crc32_gentab+0x18>
    b631:	90                   	nop
    b632:	90                   	nop
    b633:	5d                   	pop    %rbp
    b634:	c3                   	ret    

000000000000b635 <crc32_byte>:
    b635:	f3 0f 1e fa          	endbr64 
    b639:	55                   	push   %rbp
    b63a:	48 89 e5             	mov    %rsp,%rbp
    b63d:	89 f8                	mov    %edi,%eax
    b63f:	88 45 fc             	mov    %al,-0x4(%rbp)
    b642:	8b 05 d8 b9 01 00    	mov    0x1b9d8(%rip),%eax        # 27020 <crc32_context>
    b648:	c1 e8 08             	shr    $0x8,%eax
    b64b:	89 c1                	mov    %eax,%ecx
    b64d:	0f b6 55 fc          	movzbl -0x4(%rbp),%edx
    b651:	8b 05 c9 b9 01 00    	mov    0x1b9c9(%rip),%eax        # 27020 <crc32_context>
    b657:	31 d0                	xor    %edx,%eax
    b659:	0f b6 c0             	movzbl %al,%eax
    b65c:	89 c0                	mov    %eax,%eax
    b65e:	48 8d 14 85 00 00 00 	lea    0x0(,%rax,4),%rdx
    b665:	00 
    b666:	48 8d 05 f3 2b 02 00 	lea    0x22bf3(%rip),%rax        # 2e260 <crc32_tab>
    b66d:	8b 04 02             	mov    (%rdx,%rax,1),%eax
    b670:	31 c8                	xor    %ecx,%eax
    b672:	89 05 a8 b9 01 00    	mov    %eax,0x1b9a8(%rip)        # 27020 <crc32_context>
    b678:	90                   	nop
    b679:	5d                   	pop    %rbp
    b67a:	c3                   	ret    

000000000000b67b <crc32_8bytes>:
    b67b:	f3 0f 1e fa          	endbr64 
    b67f:	55                   	push   %rbp
    b680:	48 89 e5             	mov    %rsp,%rbp
    b683:	48 83 ec 08          	sub    $0x8,%rsp
    b687:	48 89 7d f8          	mov    %rdi,-0x8(%rbp)
    b68b:	48 8b 45 f8          	mov    -0x8(%rbp),%rax
    b68f:	0f b6 c0             	movzbl %al,%eax
    b692:	89 c7                	mov    %eax,%edi
    b694:	e8 9c ff ff ff       	call   b635 <crc32_byte>
    b699:	48 8b 45 f8          	mov    -0x8(%rbp),%rax
    b69d:	48 c1 e8 08          	shr    $0x8,%rax
    b6a1:	0f b6 c0             	movzbl %al,%eax
    b6a4:	89 c7                	mov    %eax,%edi
    b6a6:	e8 8a ff ff ff       	call   b635 <crc32_byte>
    b6ab:	48 8b 45 f8          	mov    -0x8(%rbp),%rax
    b6af:	48 c1 e8 10          	shr    $0x10,%rax
    b6b3:	0f b6 c0             	movzbl %al,%eax
    b6b6:	89 c7                	mov    %eax,%edi
    b6b8:	e8 78 ff ff ff       	call   b635 <crc32_byte>
    b6bd:	48 8b 45 f8          	mov    -0x8(%rbp),%rax
    b6c1:	48 c1 e8 18          	shr    $0x18,%rax
    b6c5:	0f b6 c0             	movzbl %al,%eax
    b6c8:	89 c7                	mov    %eax,%edi
    b6ca:	e8 66 ff ff ff       	call   b635 <crc32_byte>
    b6cf:	48 8b 45 f8          	mov    -0x8(%rbp),%rax
    b6d3:	48 c1 e8 20          	shr    $0x20,%rax
    b6d7:	0f b6 c0             	movzbl %al,%eax
    b6da:	89 c7                	mov    %eax,%edi
    b6dc:	e8 54 ff ff ff       	call   b635 <crc32_byte>
    b6e1:	48 8b 45 f8          	mov    -0x8(%rbp),%rax
    b6e5:	48 c1 e8 28          	shr    $0x28,%rax
    b6e9:	0f b6 c0             	movzbl %al,%eax
    b6ec:	89 c7                	mov    %eax,%edi
    b6ee:	e8 42 ff ff ff       	call   b635 <crc32_byte>
    b6f3:	48 8b 45 f8          	mov    -0x8(%rbp),%rax
    b6f7:	48 c1 e8 30          	shr    $0x30,%rax
    b6fb:	0f b6 c0             	movzbl %al,%eax
    b6fe:	89 c7                	mov    %eax,%edi
    b700:	e8 30 ff ff ff       	call   b635 <crc32_byte>
    b705:	48 8b 45 f8          	mov    -0x8(%rbp),%rax
    b709:	48 c1 e8 38          	shr    $0x38,%rax
    b70d:	0f b6 c0             	movzbl %al,%eax
    b710:	89 c7                	mov    %eax,%edi
    b712:	e8 1e ff ff ff       	call   b635 <crc32_byte>
    b717:	90                   	nop
    b718:	c9                   	leave  
    b719:	c3                   	ret    

000000000000b71a <transparent_crc>:
    b71a:	f3 0f 1e fa          	endbr64 
    b71e:	55                   	push   %rbp
    b71f:	48 89 e5             	mov    %rsp,%rbp
    b722:	48 83 ec 20          	sub    $0x20,%rsp
    b726:	48 89 7d f8          	mov    %rdi,-0x8(%rbp)
    b72a:	48 89 75 f0          	mov    %rsi,-0x10(%rbp)
    b72e:	89 55 ec             	mov    %edx,-0x14(%rbp)
    b731:	48 8b 45 f8          	mov    -0x8(%rbp),%rax
    b735:	48 89 c7             	mov    %rax,%rdi
    b738:	e8 3e ff ff ff       	call   b67b <crc32_8bytes>
    b73d:	83 7d ec 00          	cmpl   $0x0,-0x14(%rbp)
    b741:	74 25                	je     b768 <transparent_crc+0x4e>
    b743:	8b 05 d7 b8 01 00    	mov    0x1b8d7(%rip),%eax        # 27020 <crc32_context>
    b749:	f7 d0                	not    %eax
    b74b:	89 c2                	mov    %eax,%edx
    b74d:	48 8b 45 f0          	mov    -0x10(%rbp),%rax
    b751:	48 89 c6             	mov    %rax,%rsi
    b754:	48 8d 05 d5 58 01 00 	lea    0x158d5(%rip),%rax        # 21030 <_IO_stdin_used+0x30>
    b75b:	48 89 c7             	mov    %rax,%rdi
    b75e:	b8 00 00 00 00       	mov    $0x0,%eax
    b763:	e8 18 e9 ff ff       	call   a080 <printf@plt>
    b768:	90                   	nop
    b769:	c9                   	leave  
    b76a:	c3                   	ret    

000000000000b76b <transparent_crc_bytes>:
    b76b:	f3 0f 1e fa          	endbr64 
    b76f:	55                   	push   %rbp
    b770:	48 89 e5             	mov    %rsp,%rbp
    b773:	48 83 ec 30          	sub    $0x30,%rsp
    b777:	48 89 7d e8          	mov    %rdi,-0x18(%rbp)
    b77b:	89 75 e4             	mov    %esi,-0x1c(%rbp)
    b77e:	48 89 55 d8          	mov    %rdx,-0x28(%rbp)
    b782:	89 4d e0             	mov    %ecx,-0x20(%rbp)
    b785:	c7 45 fc 00 00 00 00 	movl   $0x0,-0x4(%rbp)
    b78c:	eb 1e                	jmp    b7ac <transparent_crc_bytes+0x41>
    b78e:	8b 45 fc             	mov    -0x4(%rbp),%eax
    b791:	48 63 d0             	movslq %eax,%rdx
    b794:	48 8b 45 e8          	mov    -0x18(%rbp),%rax
    b798:	48 01 d0             	add    %rdx,%rax
    b79b:	0f b6 00             	movzbl (%rax),%eax
    b79e:	0f b6 c0             	movzbl %al,%eax
    b7a1:	89 c7                	mov    %eax,%edi
    b7a3:	e8 8d fe ff ff       	call   b635 <crc32_byte>
    b7a8:	83 45 fc 01          	addl   $0x1,-0x4(%rbp)
    b7ac:	8b 45 fc             	mov    -0x4(%rbp),%eax
    b7af:	3b 45 e4             	cmp    -0x1c(%rbp),%eax
    b7b2:	7c da                	jl     b78e <transparent_crc_bytes+0x23>
    b7b4:	83 7d e0 00          	cmpl   $0x0,-0x20(%rbp)
    b7b8:	74 25                	je     b7df <transparent_crc_bytes+0x74>
    b7ba:	8b 05 60 b8 01 00    	mov    0x1b860(%rip),%eax        # 27020 <crc32_context>
    b7c0:	f7 d0                	not    %eax
    b7c2:	89 c2                	mov    %eax,%edx
    b7c4:	48 8b 45 d8          	mov    -0x28(%rbp),%rax
    b7c8:	48 89 c6             	mov    %rax,%rsi
    b7cb:	48 8d 05 5e 58 01 00 	lea    0x1585e(%rip),%rax        # 21030 <_IO_stdin_used+0x30>
    b7d2:	48 89 c7             	mov    %rax,%rdi
    b7d5:	b8 00 00 00 00       	mov    $0x0,%eax
    b7da:	e8 a1 e8 ff ff       	call   a080 <printf@plt>
    b7df:	90                   	nop
    b7e0:	c9                   	leave  
    b7e1:	c3                   	ret    

000000000000b7e2 <func_1>:
    b7e2:	f3 0f 1e fa          	endbr64 
    b7e6:	55                   	push   %rbp
    b7e7:	48 89 e5             	mov    %rsp,%rbp
    b7ea:	48 81 ec 70 01 00 00 	sub    $0x170,%rsp
    b7f1:	48 89 bd 98 fe ff ff 	mov    %rdi,-0x168(%rbp)
    b7f8:	64 48 8b 04 25 28 00 	mov    %fs:0x28,%rax
    b7ff:	00 00 
    b801:	48 89 45 f8          	mov    %rax,-0x8(%rbp)
    b805:	31 c0                	xor    %eax,%eax
    b807:	66 c7 85 aa fe ff ff 	movw   $0x47d1,-0x156(%rbp)
    b80e:	d1 47 
    b810:	c7 85 b0 fe ff ff ea 	movl   $0x959808ea,-0x150(%rbp)
    b817:	08 98 95 
    b81a:	48 b8 46 a5 56 43 94 	movabs $0xee3930944356a546,%rax
    b821:	30 39 ee 
    b824:	48 89 85 c8 fe ff ff 	mov    %rax,-0x138(%rbp)
    b82b:	48 8d 05 6e 13 02 00 	lea    0x2136e(%rip),%rax        # 2cba0 <g_2541>
    b832:	48 89 85 c0 fe ff ff 	mov    %rax,-0x140(%rbp)
    b839:	48 8d 85 c0 fe ff ff 	lea    -0x140(%rbp),%rax
    b840:	48 89 85 d0 fe ff ff 	mov    %rax,-0x130(%rbp)
    b847:	48 8d 05 b2 2e 02 00 	lea    0x22eb2(%rip),%rax        # 2e700 <g_1536>
    b84e:	48 89 85 d8 fe ff ff 	mov    %rax,-0x128(%rbp)
    b855:	48 8d 05 14 59 01 00 	lea    0x15914(%rip),%rax        # 21170 <g_4123>
    b85c:	48 89 85 e0 fe ff ff 	mov    %rax,-0x120(%rbp)
    b863:	c6 85 a7 fe ff ff d8 	movb   $0xd8,-0x159(%rbp)
    b86a:	c6 85 a8 fe ff ff e7 	movb   $0xe7,-0x158(%rbp)
    b871:	c7 85 b4 fe ff ff ff 	movl   $0xffffffff,-0x14c(%rbp)
    b878:	ff ff ff 
    b87b:	48 c7 85 e8 fe ff ff 	movq   $0x3,-0x118(%rbp)
    b882:	03 00 00 00 
    b886:	c7 85 b8 fe ff ff 6d 	movl   $0xbaebc86d,-0x148(%rbp)
    b88d:	c8 eb ba 
    b890:	48 b8 d0 f2 8e 14 7e 	movabs $0x6cb4377e148ef2d0,%rax
    b897:	37 b4 6c 
    b89a:	48 89 85 f0 fe ff ff 	mov    %rax,-0x110(%rbp)
    b8a1:	48 c7 85 f8 fe ff ff 	movq   $0xffffffffffffffff,-0x108(%rbp)
    b8a8:	ff ff ff ff 
    b8ac:	66 c7 85 70 ff ff ff 	movw   $0xb797,-0x90(%rbp)
    b8b3:	97 b7 
    b8b5:	66 c7 85 72 ff ff ff 	movw   $0x6612,-0x8e(%rbp)
    b8bc:	12 66 
    b8be:	66 c7 85 74 ff ff ff 	movw   $0x1,-0x8c(%rbp)
    b8c5:	01 00 
    b8c7:	66 c7 85 76 ff ff ff 	movw   $0x6612,-0x8a(%rbp)
    b8ce:	12 66 
    b8d0:	66 c7 85 78 ff ff ff 	movw   $0xb797,-0x88(%rbp)
    b8d7:	97 b7 
    b8d9:	66 c7 85 7a ff ff ff 	movw   $0x0,-0x86(%rbp)
    b8e0:	00 00 
    b8e2:	66 c7 85 7c ff ff ff 	movw   $0xfffd,-0x84(%rbp)
    b8e9:	fd ff 
    b8eb:	66 c7 85 7e ff ff ff 	movw   $0x0,-0x82(%rbp)
    b8f2:	00 00 
    b8f4:	66 c7 45 80 ff ff    	movw   $0xffff,-0x80(%rbp)
    b8fa:	66 c7 45 82 f9 b4    	movw   $0xb4f9,-0x7e(%rbp)
    b900:	66 c7 45 84 ff ff    	movw   $0xffff,-0x7c(%rbp)
    b906:	66 c7 45 86 00 00    	movw   $0x0,-0x7a(%rbp)
    b90c:	66 c7 45 88 fd ff    	movw   $0xfffd,-0x78(%rbp)
    b912:	66 c7 45 8a 03 00    	movw   $0x3,-0x76(%rbp)
    b918:	66 c7 45 8c 01 00    	movw   $0x1,-0x74(%rbp)
    b91e:	66 c7 45 8e 00 00    	movw   $0x0,-0x72(%rbp)
    b924:	66 c7 45 90 04 00    	movw   $0x4,-0x70(%rbp)
    b92a:	66 c7 45 92 00 00    	movw   $0x0,-0x6e(%rbp)
    b930:	66 c7 45 94 01 00    	movw   $0x1,-0x6c(%rbp)
    b936:	66 c7 45 96 03 00    	movw   $0x3,-0x6a(%rbp)
    b93c:	66 c7 45 98 ff ff    	movw   $0xffff,-0x68(%rbp)
    b942:	66 c7 45 9a f9 b4    	movw   $0xb4f9,-0x66(%rbp)
    b948:	66 c7 45 9c 97 b7    	movw   $0xb797,-0x64(%rbp)
    b94e:	66 c7 45 9e f6 ff    	movw   $0xfff6,-0x62(%rbp)
    b954:	66 c7 45 a0 97 b7    	movw   $0xb797,-0x60(%rbp)
    b95a:	66 c7 45 a2 f9 b4    	movw   $0xb4f9,-0x5e(%rbp)
    b960:	66 c7 45 a4 ff ff    	movw   $0xffff,-0x5c(%rbp)
    b966:	66 c7 45 a6 03 00    	movw   $0x3,-0x5a(%rbp)
    b96c:	66 c7 45 a8 01 00    	movw   $0x1,-0x58(%rbp)
    b972:	66 c7 45 aa 00 00    	movw   $0x0,-0x56(%rbp)
    b978:	66 c7 45 ac 04 00    	movw   $0x4,-0x54(%rbp)
    b97e:	66 c7 45 ae 00 00    	movw   $0x0,-0x52(%rbp)
    b984:	66 c7 45 b0 01 00    	movw   $0x1,-0x50(%rbp)
    b98a:	66 c7 45 b2 03 00    	movw   $0x3,-0x4e(%rbp)
    b990:	66 c7 45 b4 ff ff    	movw   $0xffff,-0x4c(%rbp)
    b996:	66 c7 45 b6 f9 b4    	movw   $0xb4f9,-0x4a(%rbp)
    b99c:	66 c7 45 b8 97 b7    	movw   $0xb797,-0x48(%rbp)
    b9a2:	66 c7 45 ba f6 ff    	movw   $0xfff6,-0x46(%rbp)
    b9a8:	66 c7 45 bc 97 b7    	movw   $0xb797,-0x44(%rbp)
    b9ae:	66 c7 45 be f9 b4    	movw   $0xb4f9,-0x42(%rbp)
    b9b4:	66 c7 45 c0 ff ff    	movw   $0xffff,-0x40(%rbp)
    b9ba:	66 c7 45 c2 03 00    	movw   $0x3,-0x3e(%rbp)
    b9c0:	66 c7 45 c4 01 00    	movw   $0x1,-0x3c(%rbp)
    b9c6:	66 c7 45 c6 00 00    	movw   $0x0,-0x3a(%rbp)
    b9cc:	66 c7 45 c8 04 00    	movw   $0x4,-0x38(%rbp)
    b9d2:	66 c7 45 ca 00 00    	movw   $0x0,-0x36(%rbp)
    b9d8:	66 c7 45 cc 01 00    	movw   $0x1,-0x34(%rbp)
    b9de:	66 c7 45 ce 03 00    	movw   $0x3,-0x32(%rbp)
    b9e4:	66 c7 45 d0 ff ff    	movw   $0xffff,-0x30(%rbp)
    b9ea:	66 c7 45 d2 f9 b4    	movw   $0xb4f9,-0x2e(%rbp)
    b9f0:	66 c7 45 d4 97 b7    	movw   $0xb797,-0x2c(%rbp)
    b9f6:	66 c7 45 d6 f6 ff    	movw   $0xfff6,-0x2a(%rbp)
    b9fc:	66 c7 45 d8 97 b7    	movw   $0xb797,-0x28(%rbp)
    ba02:	66 c7 45 da f9 b4    	movw   $0xb4f9,-0x26(%rbp)
    ba08:	66 c7 45 dc ff ff    	movw   $0xffff,-0x24(%rbp)
    ba0e:	66 c7 45 de 03 00    	movw   $0x3,-0x22(%rbp)
    ba14:	66 c7 45 e0 01 00    	movw   $0x1,-0x20(%rbp)
    ba1a:	66 c7 45 e2 00 00    	movw   $0x0,-0x1e(%rbp)
    ba20:	66 c7 45 e4 04 00    	movw   $0x4,-0x1c(%rbp)
    ba26:	66 c7 45 e6 00 00    	movw   $0x0,-0x1a(%rbp)
    ba2c:	c6 85 a9 fe ff ff 11 	movb   $0x11,-0x157(%rbp)
    ba33:	48 8d 05 5e 0f 02 00 	lea    0x20f5e(%rip),%rax        # 2c998 <g_1708>
    ba3a:	48 89 85 00 ff ff ff 	mov    %rax,-0x100(%rbp)
    ba41:	48 b8 05 45 05 45 05 	movabs $0x4505450545054505,%rax
    ba48:	45 05 45 
    ba4b:	48 89 45 ef          	mov    %rax,-0x11(%rbp)
    ba4f:	c6 45 f7 05          	movb   $0x5,-0x9(%rbp)
    ba53:	48 b8 6a 1a 31 2d d1 	movabs $0x6484cd12d311a6a,%rax
    ba5a:	4c 48 06 
    ba5d:	48 89 85 08 ff ff ff 	mov    %rax,-0xf8(%rbp)
    ba64:	c7 85 bc fe ff ff a3 	movl   $0x51f79fa3,-0x144(%rbp)
    ba6b:	9f f7 51 
    ba6e:	48 c7 85 30 ff ff ff 	movq   $0x0,-0xd0(%rbp)
    ba75:	00 00 00 00 
    ba79:	48 c7 85 38 ff ff ff 	movq   $0x0,-0xc8(%rbp)
    ba80:	00 00 00 00 
    ba84:	48 c7 85 40 ff ff ff 	movq   $0x0,-0xc0(%rbp)
    ba8b:	00 00 00 00 
    ba8f:	48 c7 85 48 ff ff ff 	movq   $0x0,-0xb8(%rbp)
    ba96:	00 00 00 00 
    ba9a:	48 c7 85 50 ff ff ff 	movq   $0x0,-0xb0(%rbp)
    baa1:	00 00 00 00 
    baa5:	48 c7 85 58 ff ff ff 	movq   $0x0,-0xa8(%rbp)
    baac:	00 00 00 00 
    bab0:	48 c7 85 60 ff ff ff 	movq   $0x0,-0xa0(%rbp)
    bab7:	00 00 00 00 
    babb:	48 c7 85 68 ff ff ff 	movq   $0x0,-0x98(%rbp)
    bac2:	00 00 00 00 
    bac6:	c7 85 ac fe ff ff 00 	movl   $0x0,-0x154(%rbp)
    bacd:	00 00 00 
    bad0:	eb 1b                	jmp    baed <func_1+0x30b>
    bad2:	8b 85 ac fe ff ff    	mov    -0x154(%rbp),%eax
    bad8:	48 98                	cltq   
    bada:	48 c7 84 c5 18 ff ff 	movq   $0x0,-0xe8(%rbp,%rax,8)
    bae1:	ff 00 00 00 00 
    bae6:	83 85 ac fe ff ff 01 	addl   $0x1,-0x154(%rbp)
    baed:	83 bd ac fe ff ff 00 	cmpl   $0x0,-0x154(%rbp)
    baf4:	7e dc                	jle    bad2 <func_1+0x2f0>
    baf6:	c7 85 ac fe ff ff 00 	movl   $0x0,-0x154(%rbp)
    bafd:	00 00 00 
    bb00:	eb 19                	jmp    bb1b <func_1+0x339>
    bb02:	8b 85 ac fe ff ff    	mov    -0x154(%rbp),%eax
    bb08:	48 98                	cltq   
    bb0a:	66 c7 84 45 26 ff ff 	movw   $0x1954,-0xda(%rbp,%rax,2)
    bb11:	ff 54 19 
    bb14:	83 85 ac fe ff ff 01 	addl   $0x1,-0x154(%rbp)
    bb1b:	83 bd ac fe ff ff 04 	cmpl   $0x4,-0x154(%rbp)
    bb22:	7e de                	jle    bb02 <func_1+0x320>
    bb24:	c7 85 ac fe ff ff 00 	movl   $0x0,-0x154(%rbp)
    bb2b:	00 00 00 
    bb2e:	eb 1a                	jmp    bb4a <func_1+0x368>
    bb30:	8b 85 ac fe ff ff    	mov    -0x154(%rbp),%eax
    bb36:	48 98                	cltq   
    bb38:	c7 84 85 14 ff ff ff 	movl   $0xb8b0f05c,-0xec(%rbp,%rax,4)
    bb3f:	5c f0 b0 b8 
    bb43:	83 85 ac fe ff ff 01 	addl   $0x1,-0x154(%rbp)
    bb4a:	83 bd ac fe ff ff 00 	cmpl   $0x0,-0x154(%rbp)
    bb51:	7e dd                	jle    bb30 <func_1+0x34e>
    bb53:	8b 05 cb b4 01 00    	mov    0x1b4cb(%rip),%eax        # 27024 <g_3>
    bb59:	83 c0 01             	add    $0x1,%eax
    bb5c:	89 05 c2 b4 01 00    	mov    %eax,0x1b4c2(%rip)        # 27024 <g_3>
    bb62:	48 8b 8d 98 fe ff ff 	mov    -0x168(%rbp),%rcx
    bb69:	48 8b b5 e0 fe ff ff 	mov    -0x120(%rbp),%rsi
    bb70:	48 8b 06             	mov    (%rsi),%rax
    bb73:	48 8b 56 08          	mov    0x8(%rsi),%rdx
    bb77:	48 89 01             	mov    %rax,(%rcx)
    bb7a:	48 89 51 08          	mov    %rdx,0x8(%rcx)
    bb7e:	48 8b 46 10          	mov    0x10(%rsi),%rax
    bb82:	48 89 41 10          	mov    %rax,0x10(%rcx)
    bb86:	48 8b 45 f8          	mov    -0x8(%rbp),%rax
    bb8a:	64 48 2b 04 25 28 00 	sub    %fs:0x28,%rax
    bb91:	00 00 
    bb93:	74 05                	je     bb9a <func_1+0x3b8>
    bb95:	e8 d6 e4 ff ff       	call   a070 <__stack_chk_fail@plt>
    bb9a:	48 8b 85 98 fe ff ff 	mov    -0x168(%rbp),%rax
    bba1:	c9                   	leave  
    bba2:	c3                   	ret    

000000000000bba3 <func_20>:
    bba3:	f3 0f 1e fa          	endbr64 
    bba7:	55                   	push   %rbp
    bba8:	48 89 e5             	mov    %rsp,%rbp
    bbab:	48 81 ec f0 05 00 00 	sub    $0x5f0,%rsp
    bbb2:	89 f8                	mov    %edi,%eax
    bbb4:	89 b5 28 fa ff ff    	mov    %esi,-0x5d8(%rbp)
    bbba:	89 95 24 fa ff ff    	mov    %edx,-0x5dc(%rbp)
    bbc0:	48 89 8d 18 fa ff ff 	mov    %rcx,-0x5e8(%rbp)
    bbc7:	4c 89 85 10 fa ff ff 	mov    %r8,-0x5f0(%rbp)
    bbce:	66 89 85 2c fa ff ff 	mov    %ax,-0x5d4(%rbp)
    bbd5:	64 48 8b 04 25 28 00 	mov    %fs:0x28,%rax
    bbdc:	00 00 
    bbde:	48 89 45 f8          	mov    %rax,-0x8(%rbp)
    bbe2:	31 c0                	xor    %eax,%eax
    bbe4:	48 8d 05 95 c8 01 00 	lea    0x1c895(%rip),%rax        # 28480 <g_3042>
    bbeb:	48 89 85 48 fa ff ff 	mov    %rax,-0x5b8(%rbp)
    bbf2:	48 8d 85 48 fa ff ff 	lea    -0x5b8(%rbp),%rax
    bbf9:	48 89 85 d0 fa ff ff 	mov    %rax,-0x530(%rbp)
    bc00:	48 8d 85 48 fa ff ff 	lea    -0x5b8(%rbp),%rax
    bc07:	48 89 85 d8 fa ff ff 	mov    %rax,-0x528(%rbp)
    bc0e:	48 8d 85 48 fa ff ff 	lea    -0x5b8(%rbp),%rax
    bc15:	48 89 85 e0 fa ff ff 	mov    %rax,-0x520(%rbp)
    bc1c:	48 8d 85 48 fa ff ff 	lea    -0x5b8(%rbp),%rax
    bc23:	48 89 85 e8 fa ff ff 	mov    %rax,-0x518(%rbp)
    bc2a:	48 8d 85 48 fa ff ff 	lea    -0x5b8(%rbp),%rax
    bc31:	48 89 85 f0 fa ff ff 	mov    %rax,-0x510(%rbp)
    bc38:	48 8d 85 48 fa ff ff 	lea    -0x5b8(%rbp),%rax
    bc3f:	48 89 85 f8 fa ff ff 	mov    %rax,-0x508(%rbp)
    bc46:	48 8d 85 48 fa ff ff 	lea    -0x5b8(%rbp),%rax
    bc4d:	48 89 85 00 fb ff ff 	mov    %rax,-0x500(%rbp)
    bc54:	48 8d 85 48 fa ff ff 	lea    -0x5b8(%rbp),%rax
    bc5b:	48 89 85 08 fb ff ff 	mov    %rax,-0x4f8(%rbp)
    bc62:	48 8d 85 48 fa ff ff 	lea    -0x5b8(%rbp),%rax
    bc69:	48 89 85 10 fb ff ff 	mov    %rax,-0x4f0(%rbp)
    bc70:	48 8d 85 48 fa ff ff 	lea    -0x5b8(%rbp),%rax
    bc77:	48 89 85 18 fb ff ff 	mov    %rax,-0x4e8(%rbp)
    bc7e:	48 8d 85 48 fa ff ff 	lea    -0x5b8(%rbp),%rax
    bc85:	48 89 85 20 fb ff ff 	mov    %rax,-0x4e0(%rbp)
    bc8c:	48 8d 85 48 fa ff ff 	lea    -0x5b8(%rbp),%rax
    bc93:	48 89 85 28 fb ff ff 	mov    %rax,-0x4d8(%rbp)
    bc9a:	48 8d 85 48 fa ff ff 	lea    -0x5b8(%rbp),%rax
    bca1:	48 89 85 30 fb ff ff 	mov    %rax,-0x4d0(%rbp)
    bca8:	48 8d 85 48 fa ff ff 	lea    -0x5b8(%rbp),%rax
    bcaf:	48 89 85 38 fb ff ff 	mov    %rax,-0x4c8(%rbp)
    bcb6:	48 8d 85 48 fa ff ff 	lea    -0x5b8(%rbp),%rax
    bcbd:	48 89 85 40 fb ff ff 	mov    %rax,-0x4c0(%rbp)
    bcc4:	48 8d 85 48 fa ff ff 	lea    -0x5b8(%rbp),%rax
    bccb:	48 89 85 48 fb ff ff 	mov    %rax,-0x4b8(%rbp)
    bcd2:	48 8d 05 9f b3 01 00 	lea    0x1b39f(%rip),%rax        # 27078 <g_106>
    bcd9:	48 89 85 60 fa ff ff 	mov    %rax,-0x5a0(%rbp)
    bce0:	c7 85 38 fa ff ff 4a 	movl   $0xb20ccb4a,-0x5c8(%rbp)
    bce7:	cb 0c b2 
    bcea:	c7 85 50 fb ff ff 45 	movl   $0xf8ea4a45,-0x4b0(%rbp)
    bcf1:	4a ea f8 
    bcf4:	c7 85 54 fb ff ff ff 	movl   $0xffffffff,-0x4ac(%rbp)
    bcfb:	ff ff ff 
    bcfe:	c7 85 58 fb ff ff 60 	movl   $0xc0478960,-0x4a8(%rbp)
    bd05:	89 47 c0 
    bd08:	c7 85 5c fb ff ff e1 	movl   $0x1bef88e1,-0x4a4(%rbp)
    bd0f:	88 ef 1b 
    bd12:	c7 85 60 fb ff ff 60 	movl   $0xc0478960,-0x4a0(%rbp)
    bd19:	89 47 c0 
    bd1c:	c7 85 64 fb ff ff ff 	movl   $0xffffffff,-0x49c(%rbp)
    bd23:	ff ff ff 
    bd26:	c7 85 68 fb ff ff 45 	movl   $0xf8ea4a45,-0x498(%rbp)
    bd2d:	4a ea f8 
    bd30:	c7 85 6c fb ff ff 60 	movl   $0xc0478960,-0x494(%rbp)
    bd37:	89 47 c0 
    bd3a:	c7 85 70 fb ff ff f6 	movl   $0xd5725f6,-0x490(%rbp)
    bd41:	25 57 0d 
    bd44:	c7 85 74 fb ff ff 2d 	movl   $0x6e9e5e2d,-0x48c(%rbp)
    bd4b:	5e 9e 6e 
    bd4e:	c7 85 78 fb ff ff 00 	movl   $0x0,-0x488(%rbp)
    bd55:	00 00 00 
    bd58:	c7 85 7c fb ff ff b1 	movl   $0xeb823bb1,-0x484(%rbp)
    bd5f:	3b 82 eb 
    bd62:	c7 85 80 fb ff ff 08 	movl   $0x8,-0x480(%rbp)
    bd69:	00 00 00 
    bd6c:	c7 85 84 fb ff ff 60 	movl   $0xc0478960,-0x47c(%rbp)
    bd73:	89 47 c0 
    bd76:	c7 85 88 fb ff ff b1 	movl   $0xeb823bb1,-0x478(%rbp)
    bd7d:	3b 82 eb 
    bd80:	c7 85 8c fb ff ff f8 	movl   $0xfffffff8,-0x474(%rbp)
    bd87:	ff ff ff 
    bd8a:	c7 85 90 fb ff ff b1 	movl   $0xeb823bb1,-0x470(%rbp)
    bd91:	3b 82 eb 
    bd94:	c7 85 94 fb ff ff 60 	movl   $0xc0478960,-0x46c(%rbp)
    bd9b:	89 47 c0 
    bd9e:	c7 85 98 fb ff ff 2d 	movl   $0x6e9e5e2d,-0x468(%rbp)
    bda5:	5e 9e 6e 
    bda8:	c7 85 9c fb ff ff 60 	movl   $0xc0478960,-0x464(%rbp)
    bdaf:	89 47 c0 
    bdb2:	c7 85 a0 fb ff ff 60 	movl   $0xc0478960,-0x460(%rbp)
    bdb9:	89 47 c0 
    bdbc:	c7 85 a4 fb ff ff 2d 	movl   $0x6e9e5e2d,-0x45c(%rbp)
    bdc3:	5e 9e 6e 
    bdc6:	c7 85 a8 fb ff ff 00 	movl   $0x0,-0x458(%rbp)
    bdcd:	00 00 00 
    bdd0:	c7 85 ac fb ff ff b1 	movl   $0xeb823bb1,-0x454(%rbp)
    bdd7:	3b 82 eb 
    bdda:	c7 85 b0 fb ff ff 08 	movl   $0x8,-0x450(%rbp)
    bde1:	00 00 00 
    bde4:	c7 85 b4 fb ff ff 60 	movl   $0xc0478960,-0x44c(%rbp)
    bdeb:	89 47 c0 
    bdee:	c7 85 b8 fb ff ff b1 	movl   $0xeb823bb1,-0x448(%rbp)
    bdf5:	3b 82 eb 
    bdf8:	c7 85 bc fb ff ff 45 	movl   $0xf8ea4a45,-0x444(%rbp)
    bdff:	4a ea f8 
    be02:	c7 85 c0 fb ff ff 60 	movl   $0xc0478960,-0x440(%rbp)
    be09:	89 47 c0 
    be0c:	c7 85 c4 fb ff ff f6 	movl   $0xd5725f6,-0x43c(%rbp)
    be13:	25 57 0d 
    be16:	c7 85 c8 fb ff ff 08 	movl   $0x8,-0x438(%rbp)
    be1d:	00 00 00 
    be20:	c7 85 cc fb ff ff ff 	movl   $0xffffffff,-0x434(%rbp)
    be27:	ff ff ff 
    be2a:	c7 85 d0 fb ff ff ff 	movl   $0xffffffff,-0x430(%rbp)
    be31:	ff ff ff 
    be34:	c7 85 d4 fb ff ff 08 	movl   $0x8,-0x42c(%rbp)
    be3b:	00 00 00 
    be3e:	c7 85 d8 fb ff ff f6 	movl   $0xd5725f6,-0x428(%rbp)
    be45:	25 57 0d 
    be48:	c7 85 dc fb ff ff 60 	movl   $0xc0478960,-0x424(%rbp)
    be4f:	89 47 c0 
    be52:	c7 85 e0 fb ff ff 08 	movl   $0x8,-0x420(%rbp)
    be59:	00 00 00 
    be5c:	c7 85 e4 fb ff ff 00 	movl   $0x0,-0x41c(%rbp)
    be63:	00 00 00 
    be66:	c7 85 e8 fb ff ff f6 	movl   $0xd5725f6,-0x418(%rbp)
    be6d:	25 57 0d 
    be70:	c7 85 ec fb ff ff e1 	movl   $0x1bef88e1,-0x414(%rbp)
    be77:	88 ef 1b 
    be7a:	c7 85 f0 fb ff ff 00 	movl   $0x0,-0x410(%rbp)
    be81:	00 00 00 
    be84:	c7 85 f4 fb ff ff 60 	movl   $0xc0478960,-0x40c(%rbp)
    be8b:	89 47 c0 
    be8e:	c7 85 f8 fb ff ff f8 	movl   $0xfffffff8,-0x408(%rbp)
    be95:	ff ff ff 
    be98:	c7 85 fc fb ff ff f6 	movl   $0xd5725f6,-0x404(%rbp)
    be9f:	25 57 0d 
    bea2:	c7 85 00 fc ff ff f6 	movl   $0xd5725f6,-0x400(%rbp)
    bea9:	25 57 0d 
    beac:	c7 85 04 fc ff ff 45 	movl   $0xf8ea4a45,-0x3fc(%rbp)
    beb3:	4a ea f8 
    beb6:	c7 85 08 fc ff ff ff 	movl   $0xffffffff,-0x3f8(%rbp)
    bebd:	ff ff ff 
    bec0:	c7 85 0c fc ff ff 60 	movl   $0xc0478960,-0x3f4(%rbp)
    bec7:	89 47 c0 
    beca:	c7 85 10 fc ff ff e1 	movl   $0x1bef88e1,-0x3f0(%rbp)
    bed1:	88 ef 1b 
    bed4:	c7 85 14 fc ff ff 60 	movl   $0xc0478960,-0x3ec(%rbp)
    bedb:	89 47 c0 
    bede:	c7 85 18 fc ff ff ff 	movl   $0xffffffff,-0x3e8(%rbp)
    bee5:	ff ff ff 
    bee8:	c7 85 1c fc ff ff 45 	movl   $0xf8ea4a45,-0x3e4(%rbp)
    beef:	4a ea f8 
    bef2:	c7 85 20 fc ff ff 60 	movl   $0xc0478960,-0x3e0(%rbp)
    bef9:	89 47 c0 
    befc:	c7 85 24 fc ff ff f6 	movl   $0xd5725f6,-0x3dc(%rbp)
    bf03:	25 57 0d 
    bf06:	48 8d 85 30 fc ff ff 	lea    -0x3d0(%rbp),%rax
    bf0d:	48 8d 15 8c 52 01 00 	lea    0x1528c(%rip),%rdx        # 211a0 <g_4123+0x30>
    bf14:	b9 78 00 00 00       	mov    $0x78,%ecx
    bf19:	48 89 c7             	mov    %rax,%rdi
    bf1c:	48 89 d6             	mov    %rdx,%rsi
    bf1f:	f3 48 a5             	rep movsq %ds:(%rsi),%es:(%rdi)
    bf22:	48 8d 05 7f 0a 02 00 	lea    0x20a7f(%rip),%rax        # 2c9a8 <g_1934>
    bf29:	48 89 85 68 fa ff ff 	mov    %rax,-0x598(%rbp)
    bf30:	c7 85 3c fa ff ff 01 	movl   $0x1,-0x5c4(%rbp)
    bf37:	00 00 00 
    bf3a:	48 8d 05 1f b1 01 00 	lea    0x1b11f(%rip),%rax        # 27060 <g_79>
    bf41:	48 89 85 70 fa ff ff 	mov    %rax,-0x590(%rbp)
    bf48:	48 c7 85 78 fa ff ff 	movq   $0x0,-0x588(%rbp)
    bf4f:	00 00 00 00 
    bf53:	48 b8 d9 23 2b 38 d3 	movabs $0x86a7bcd3382b23d9,%rax
    bf5a:	bc a7 86 
    bf5d:	48 89 85 80 fa ff ff 	mov    %rax,-0x580(%rbp)
    bf64:	c7 85 40 fa ff ff 01 	movl   $0x1,-0x5c0(%rbp)
    bf6b:	00 00 00 
    bf6e:	c6 85 30 fa ff ff 72 	movb   $0x72,-0x5d0(%rbp)
    bf75:	48 c7 85 88 fa ff ff 	movq   $0x0,-0x578(%rbp)
    bf7c:	00 00 00 00 
    bf80:	48 8d 05 51 0a 02 00 	lea    0x20a51(%rip),%rax        # 2c9d8 <g_1943+0x18>
    bf87:	48 89 85 50 fa ff ff 	mov    %rax,-0x5b0(%rbp)
    bf8e:	48 8d 85 50 fa ff ff 	lea    -0x5b0(%rbp),%rax
    bf95:	48 89 85 90 fa ff ff 	mov    %rax,-0x570(%rbp)
    bf9c:	48 b8 3d e1 be 3a 49 	movabs $0xd98dd1493abee13d,%rax
    bfa3:	d1 8d d9 
    bfa6:	48 89 85 98 fa ff ff 	mov    %rax,-0x568(%rbp)
    bfad:	48 8d 05 ac d4 01 00 	lea    0x1d4ac(%rip),%rax        # 29460 <g_3631>
    bfb4:	48 89 85 a0 fa ff ff 	mov    %rax,-0x560(%rbp)
    bfbb:	48 8d 05 b0 c4 01 00 	lea    0x1c4b0(%rip),%rax        # 28472 <g_3018+0x12>
    bfc2:	48 89 85 a8 fa ff ff 	mov    %rax,-0x558(%rbp)
    bfc9:	48 c7 85 b0 fa ff ff 	movq   $0xfffffffffffffff9,-0x550(%rbp)
    bfd0:	f9 ff ff ff 
    bfd4:	c6 85 31 fa ff ff 62 	movb   $0x62,-0x5cf(%rbp)
    bfdb:	c7 85 44 fa ff ff f5 	movl   $0x748312f5,-0x5bc(%rbp)
    bfe2:	12 83 74 
    bfe5:	66 c7 85 32 fa ff ff 	movw   $0xd898,-0x5ce(%rbp)
    bfec:	98 d8 
    bfee:	48 8d 05 eb 07 02 00 	lea    0x207eb(%rip),%rax        # 2c7e0 <g_134>
    bff5:	48 89 85 b8 fa ff ff 	mov    %rax,-0x548(%rbp)
    bffc:	66 c7 85 34 fa ff ff 	movw   $0xffff,-0x5cc(%rbp)
    c003:	ff ff 
    c005:	48 8d 05 94 0b 02 00 	lea    0x20b94(%rip),%rax        # 2cba0 <g_2541>
    c00c:	48 89 85 58 fa ff ff 	mov    %rax,-0x5a8(%rbp)
    c013:	48 8d 85 58 fa ff ff 	lea    -0x5a8(%rbp),%rax
    c01a:	48 89 85 c0 fa ff ff 	mov    %rax,-0x540(%rbp)
    c021:	48 b8 e1 d6 67 b2 63 	movabs $0x3d8a5d63b267d6e1,%rax
    c028:	5d 8a 3d 
    c02b:	48 89 85 c8 fa ff ff 	mov    %rax,-0x538(%rbp)
    c032:	66 c7 85 36 fa ff ff 	movw   $0xffff,-0x5ca(%rbp)
    c039:	ff ff 
    c03b:	48 0f bf 85 36 fa ff 	movswq -0x5ca(%rbp),%rax
    c042:	ff 
    c043:	48 8b 55 f8          	mov    -0x8(%rbp),%rdx
    c047:	64 48 2b 14 25 28 00 	sub    %fs:0x28,%rdx
    c04e:	00 00 
    c050:	74 05                	je     c057 <func_20+0x4b4>
    c052:	e8 19 e0 ff ff       	call   a070 <__stack_chk_fail@plt>
    c057:	c9                   	leave  
    c058:	c3                   	ret    

000000000000c059 <func_26>:
    c059:	f3 0f 1e fa          	endbr64 
    c05d:	55                   	push   %rbp
    c05e:	48 89 e5             	mov    %rsp,%rbp
    c061:	48 81 ec 40 01 00 00 	sub    $0x140,%rsp
    c068:	48 89 b5 d0 fe ff ff 	mov    %rsi,-0x130(%rbp)
    c06f:	48 89 95 c8 fe ff ff 	mov    %rdx,-0x138(%rbp)
    c076:	89 c8                	mov    %ecx,%eax
    c078:	4c 89 85 c0 fe ff ff 	mov    %r8,-0x140(%rbp)
    c07f:	89 fa                	mov    %edi,%edx
    c081:	66 89 95 dc fe ff ff 	mov    %dx,-0x124(%rbp)
    c088:	66 89 85 d8 fe ff ff 	mov    %ax,-0x128(%rbp)
    c08f:	64 48 8b 04 25 28 00 	mov    %fs:0x28,%rax
    c096:	00 00 
    c098:	48 89 45 f8          	mov    %rax,-0x8(%rbp)
    c09c:	31 c0                	xor    %eax,%eax
    c09e:	48 8d 05 b3 af 01 00 	lea    0x1afb3(%rip),%rax        # 27058 <g_70>
    c0a5:	48 89 85 e8 fe ff ff 	mov    %rax,-0x118(%rbp)
    c0ac:	48 8d 05 7d 26 02 00 	lea    0x2267d(%rip),%rax        # 2e730 <g_2210>
    c0b3:	48 89 85 f0 fe ff ff 	mov    %rax,-0x110(%rbp)
    c0ba:	48 c7 85 f8 fe ff ff 	movq   $0x0,-0x108(%rbp)
    c0c1:	00 00 00 00 
    c0c5:	48 8d 05 8c af 01 00 	lea    0x1af8c(%rip),%rax        # 27058 <g_70>
    c0cc:	48 89 85 00 ff ff ff 	mov    %rax,-0x100(%rbp)
    c0d3:	48 c7 85 08 ff ff ff 	movq   $0x0,-0xf8(%rbp)
    c0da:	00 00 00 00 
    c0de:	48 8d 05 7b b1 01 00 	lea    0x1b17b(%rip),%rax        # 27260 <g_334+0xc0>
    c0e5:	48 89 85 20 ff ff ff 	mov    %rax,-0xe0(%rbp)
    c0ec:	48 8d 05 65 af 01 00 	lea    0x1af65(%rip),%rax        # 27058 <g_70>
    c0f3:	48 89 85 28 ff ff ff 	mov    %rax,-0xd8(%rbp)
    c0fa:	48 8d 05 57 af 01 00 	lea    0x1af57(%rip),%rax        # 27058 <g_70>
    c101:	48 89 85 30 ff ff ff 	mov    %rax,-0xd0(%rbp)
    c108:	48 8d 05 51 b1 01 00 	lea    0x1b151(%rip),%rax        # 27260 <g_334+0xc0>
    c10f:	48 89 85 38 ff ff ff 	mov    %rax,-0xc8(%rbp)
    c116:	48 8d 05 3b af 01 00 	lea    0x1af3b(%rip),%rax        # 27058 <g_70>
    c11d:	48 89 85 40 ff ff ff 	mov    %rax,-0xc0(%rbp)
    c124:	48 8d 05 2d af 01 00 	lea    0x1af2d(%rip),%rax        # 27058 <g_70>
    c12b:	48 89 85 48 ff ff ff 	mov    %rax,-0xb8(%rbp)
    c132:	48 8d 05 27 b1 01 00 	lea    0x1b127(%rip),%rax        # 27260 <g_334+0xc0>
    c139:	48 89 85 50 ff ff ff 	mov    %rax,-0xb0(%rbp)
    c140:	48 8d 05 11 af 01 00 	lea    0x1af11(%rip),%rax        # 27058 <g_70>
    c147:	48 89 85 58 ff ff ff 	mov    %rax,-0xa8(%rbp)
    c14e:	48 8d 05 f7 af 01 00 	lea    0x1aff7(%rip),%rax        # 2714c <g_176+0x4>
    c155:	48 89 85 60 ff ff ff 	mov    %rax,-0xa0(%rbp)
    c15c:	48 8d 05 f5 ae 01 00 	lea    0x1aef5(%rip),%rax        # 27058 <g_70>
    c163:	48 89 85 68 ff ff ff 	mov    %rax,-0x98(%rbp)
    c16a:	48 b8 72 3e 78 5b 29 	movabs $0x486313295b783e72,%rax
    c171:	13 63 48 
    c174:	48 89 85 70 ff ff ff 	mov    %rax,-0x90(%rbp)
    c17b:	48 c7 85 78 ff ff ff 	movq   $0x0,-0x88(%rbp)
    c182:	00 00 00 00 
    c186:	48 89 45 80          	mov    %rax,-0x80(%rbp)
    c18a:	48 89 45 88          	mov    %rax,-0x78(%rbp)
    c18e:	48 c7 45 90 00 00 00 	movq   $0x0,-0x70(%rbp)
    c195:	00 
    c196:	48 89 45 98          	mov    %rax,-0x68(%rbp)
    c19a:	48 89 45 a0          	mov    %rax,-0x60(%rbp)
    c19e:	48 c7 45 a8 00 00 00 	movq   $0x0,-0x58(%rbp)
    c1a5:	00 
    c1a6:	48 c7 45 b0 00 00 00 	movq   $0x0,-0x50(%rbp)
    c1ad:	00 
    c1ae:	48 89 45 b8          	mov    %rax,-0x48(%rbp)
    c1b2:	48 89 45 c0          	mov    %rax,-0x40(%rbp)
    c1b6:	48 c7 45 c8 00 00 00 	movq   $0x0,-0x38(%rbp)
    c1bd:	00 
    c1be:	48 89 45 d0          	mov    %rax,-0x30(%rbp)
    c1c2:	48 89 45 d8          	mov    %rax,-0x28(%rbp)
    c1c6:	48 c7 45 e0 00 00 00 	movq   $0x0,-0x20(%rbp)
    c1cd:	00 
    c1ce:	48 89 45 e8          	mov    %rax,-0x18(%rbp)
    c1d2:	c7 85 e4 fe ff ff 00 	movl   $0x0,-0x11c(%rbp)
    c1d9:	00 00 00 
    c1dc:	48 c7 85 10 ff ff ff 	movq   $0x0,-0xf0(%rbp)
    c1e3:	00 00 00 00 
    c1e7:	48 b8 92 22 fd 56 54 	movabs $0xde341b5456fd2292,%rax
    c1ee:	1b 34 de 
    c1f1:	48 89 85 18 ff ff ff 	mov    %rax,-0xe8(%rbp)
    c1f8:	48 8b 05 61 07 02 00 	mov    0x20761(%rip),%rax        # 2c960 <g_1494>
    c1ff:	c7 00 84 84 23 79    	movl   $0x79238484,(%rax)
    c205:	48 8b 85 f0 fe ff ff 	mov    -0x110(%rbp),%rax
    c20c:	48 8b 95 e8 fe ff ff 	mov    -0x118(%rbp),%rdx
    c213:	48 89 10             	mov    %rdx,(%rax)
    c216:	48 83 ad 10 ff ff ff 	subq   $0x1,-0xf0(%rbp)
    c21d:	01 
    c21e:	48 8b 85 18 ff ff ff 	mov    -0xe8(%rbp),%rax
    c225:	48 8b 55 f8          	mov    -0x8(%rbp),%rdx
    c229:	64 48 2b 14 25 28 00 	sub    %fs:0x28,%rdx
    c230:	00 00 
    c232:	74 05                	je     c239 <func_26+0x1e0>
    c234:	e8 37 de ff ff       	call   a070 <__stack_chk_fail@plt>
    c239:	c9                   	leave  
    c23a:	c3                   	ret    

000000000000c23b <func_33>:
    c23b:	f3 0f 1e fa          	endbr64 
    c23f:	55                   	push   %rbp
    c240:	48 89 e5             	mov    %rsp,%rbp
    c243:	48 83 ec 50          	sub    $0x50,%rsp
    c247:	89 f8                	mov    %edi,%eax
    c249:	66 89 45 bc          	mov    %ax,-0x44(%rbp)
    c24d:	64 48 8b 04 25 28 00 	mov    %fs:0x28,%rax
    c254:	00 00 
    c256:	48 89 45 f8          	mov    %rax,-0x8(%rbp)
    c25a:	31 c0                	xor    %eax,%eax
    c25c:	c7 45 d0 f6 ff ff ff 	movl   $0xfffffff6,-0x30(%rbp)
    c263:	c7 45 d4 f6 ff ff ff 	movl   $0xfffffff6,-0x2c(%rbp)
    c26a:	c7 45 d8 f6 ff ff ff 	movl   $0xfffffff6,-0x28(%rbp)
    c271:	c7 45 dc f6 ff ff ff 	movl   $0xfffffff6,-0x24(%rbp)
    c278:	c7 45 e0 f6 ff ff ff 	movl   $0xfffffff6,-0x20(%rbp)
    c27f:	c7 45 e4 f6 ff ff ff 	movl   $0xfffffff6,-0x1c(%rbp)
    c286:	c7 45 e8 f6 ff ff ff 	movl   $0xfffffff6,-0x18(%rbp)
    c28d:	c7 45 ec f6 ff ff ff 	movl   $0xfffffff6,-0x14(%rbp)
    c294:	48 8d 05 ac c1 01 00 	lea    0x1c1ac(%rip),%rax        # 28447 <g_2929+0x17>
    c29b:	48 89 45 c8          	mov    %rax,-0x38(%rbp)
    c29f:	8b 45 d8             	mov    -0x28(%rbp),%eax
    c2a2:	83 c0 01             	add    $0x1,%eax
    c2a5:	89 45 d8             	mov    %eax,-0x28(%rbp)
    c2a8:	48 8b 45 c8          	mov    -0x38(%rbp),%rax
    c2ac:	48 8b 55 f8          	mov    -0x8(%rbp),%rdx
    c2b0:	64 48 2b 14 25 28 00 	sub    %fs:0x28,%rdx
    c2b7:	00 00 
    c2b9:	74 05                	je     c2c0 <func_33+0x85>
    c2bb:	e8 b0 dd ff ff       	call   a070 <__stack_chk_fail@plt>
    c2c0:	c9                   	leave  
    c2c1:	c3                   	ret    

000000000000c2c2 <func_35>:
    c2c2:	f3 0f 1e fa          	endbr64 
    c2c6:	55                   	push   %rbp
    c2c7:	48 89 e5             	mov    %rsp,%rbp
    c2ca:	41 57                	push   %r15
    c2cc:	41 56                	push   %r14
    c2ce:	41 55                	push   %r13
    c2d0:	41 54                	push   %r12
    c2d2:	53                   	push   %rbx
    c2d3:	48 81 ec 68 07 00 00 	sub    $0x768,%rsp
    c2da:	89 bd 9c f8 ff ff    	mov    %edi,-0x764(%rbp)
    c2e0:	89 b5 98 f8 ff ff    	mov    %esi,-0x768(%rbp)
    c2e6:	64 48 8b 04 25 28 00 	mov    %fs:0x28,%rax
    c2ed:	00 00 
    c2ef:	48 89 45 c8          	mov    %rax,-0x38(%rbp)
    c2f3:	31 c0                	xor    %eax,%eax
    c2f5:	48 b8 98 5f 27 26 9a 	movabs $0x77d98a9a26275f98,%rax
    c2fc:	8a d9 77 
    c2ff:	48 89 85 d8 f8 ff ff 	mov    %rax,-0x728(%rbp)
    c306:	48 c7 85 e0 f8 ff ff 	movq   $0x0,-0x720(%rbp)
    c30d:	00 00 00 00 
    c311:	66 c7 85 a0 f9 ff ff 	movw   $0xfffe,-0x660(%rbp)
    c318:	fe ff 
    c31a:	66 c7 85 a2 f9 ff ff 	movw   $0x2be6,-0x65e(%rbp)
    c321:	e6 2b 
    c323:	66 c7 85 a4 f9 ff ff 	movw   $0x87de,-0x65c(%rbp)
    c32a:	de 87 
    c32c:	66 c7 85 a6 f9 ff ff 	movw   $0x2be6,-0x65a(%rbp)
    c333:	e6 2b 
    c335:	66 c7 85 a8 f9 ff ff 	movw   $0xfffe,-0x658(%rbp)
    c33c:	fe ff 
    c33e:	66 c7 85 aa f9 ff ff 	movw   $0x0,-0x656(%rbp)
    c345:	00 00 
    c347:	66 c7 85 ac f9 ff ff 	movw   $0x63c2,-0x654(%rbp)
    c34e:	c2 63 
    c350:	66 c7 85 ae f9 ff ff 	movw   $0xa80e,-0x652(%rbp)
    c357:	0e a8 
    c359:	66 c7 85 b0 f9 ff ff 	movw   $0xfffd,-0x650(%rbp)
    c360:	fd ff 
    c362:	66 c7 85 b2 f9 ff ff 	movw   $0x2149,-0x64e(%rbp)
    c369:	49 21 
    c36b:	66 c7 85 b4 f9 ff ff 	movw   $0x1,-0x64c(%rbp)
    c372:	01 00 
    c374:	66 c7 85 b6 f9 ff ff 	movw   $0x61ea,-0x64a(%rbp)
    c37b:	ea 61 
    c37d:	66 c7 85 b8 f9 ff ff 	movw   $0x15b6,-0x648(%rbp)
    c384:	b6 15 
    c386:	66 c7 85 ba f9 ff ff 	movw   $0xc3de,-0x646(%rbp)
    c38d:	de c3 
    c38f:	66 c7 85 bc f9 ff ff 	movw   $0x15b6,-0x644(%rbp)
    c396:	b6 15 
    c398:	66 c7 85 be f9 ff ff 	movw   $0x61ea,-0x642(%rbp)
    c39f:	ea 61 
    c3a1:	66 c7 85 c0 f9 ff ff 	movw   $0x1,-0x640(%rbp)
    c3a8:	01 00 
    c3aa:	66 c7 85 c2 f9 ff ff 	movw   $0x2149,-0x63e(%rbp)
    c3b1:	49 21 
    c3b3:	66 c7 85 c4 f9 ff ff 	movw   $0xfffd,-0x63c(%rbp)
    c3ba:	fd ff 
    c3bc:	66 c7 85 c6 f9 ff ff 	movw   $0xa80e,-0x63a(%rbp)
    c3c3:	0e a8 
    c3c5:	66 c7 85 c8 f9 ff ff 	movw   $0x63c2,-0x638(%rbp)
    c3cc:	c2 63 
    c3ce:	66 c7 85 ca f9 ff ff 	movw   $0x0,-0x636(%rbp)
    c3d5:	00 00 
    c3d7:	66 c7 85 cc f9 ff ff 	movw   $0xfffe,-0x634(%rbp)
    c3de:	fe ff 
    c3e0:	66 c7 85 ce f9 ff ff 	movw   $0x2be6,-0x632(%rbp)
    c3e7:	e6 2b 
    c3e9:	66 c7 85 d0 f9 ff ff 	movw   $0x87de,-0x630(%rbp)
    c3f0:	de 87 
    c3f2:	66 c7 85 d2 f9 ff ff 	movw   $0x2be6,-0x62e(%rbp)
    c3f9:	e6 2b 
    c3fb:	66 c7 85 d4 f9 ff ff 	movw   $0xfffe,-0x62c(%rbp)
    c402:	fe ff 
    c404:	66 c7 85 d6 f9 ff ff 	movw   $0x0,-0x62a(%rbp)
    c40b:	00 00 
    c40d:	66 c7 85 d8 f9 ff ff 	movw   $0x63c2,-0x628(%rbp)
    c414:	c2 63 
    c416:	66 c7 85 da f9 ff ff 	movw   $0xa80e,-0x626(%rbp)
    c41d:	0e a8 
    c41f:	66 c7 85 dc f9 ff ff 	movw   $0xfffd,-0x624(%rbp)
    c426:	fd ff 
    c428:	66 c7 85 de f9 ff ff 	movw   $0x2149,-0x622(%rbp)
    c42f:	49 21 
    c431:	66 c7 85 e0 f9 ff ff 	movw   $0x1,-0x620(%rbp)
    c438:	01 00 
    c43a:	66 c7 85 e2 f9 ff ff 	movw   $0x61ea,-0x61e(%rbp)
    c441:	ea 61 
    c443:	66 c7 85 e4 f9 ff ff 	movw   $0x15b6,-0x61c(%rbp)
    c44a:	b6 15 
    c44c:	66 c7 85 e6 f9 ff ff 	movw   $0xc3de,-0x61a(%rbp)
    c453:	de c3 
    c455:	66 c7 85 e8 f9 ff ff 	movw   $0x15b6,-0x618(%rbp)
    c45c:	b6 15 
    c45e:	66 c7 85 ea f9 ff ff 	movw   $0x61ea,-0x616(%rbp)
    c465:	ea 61 
    c467:	66 c7 85 ec f9 ff ff 	movw   $0x1,-0x614(%rbp)
    c46e:	01 00 
    c470:	66 c7 85 ee f9 ff ff 	movw   $0x2149,-0x612(%rbp)
    c477:	49 21 
    c479:	66 c7 85 f0 f9 ff ff 	movw   $0xfffd,-0x610(%rbp)
    c480:	fd ff 
    c482:	66 c7 85 f2 f9 ff ff 	movw   $0xa80e,-0x60e(%rbp)
    c489:	0e a8 
    c48b:	66 c7 85 f4 f9 ff ff 	movw   $0x63c2,-0x60c(%rbp)
    c492:	c2 63 
    c494:	66 c7 85 f6 f9 ff ff 	movw   $0x0,-0x60a(%rbp)
    c49b:	00 00 
    c49d:	66 c7 85 f8 f9 ff ff 	movw   $0xfffe,-0x608(%rbp)
    c4a4:	fe ff 
    c4a6:	66 c7 85 fa f9 ff ff 	movw   $0x2be6,-0x606(%rbp)
    c4ad:	e6 2b 
    c4af:	66 c7 85 fc f9 ff ff 	movw   $0x87de,-0x604(%rbp)
    c4b6:	de 87 
    c4b8:	66 c7 85 fe f9 ff ff 	movw   $0x2be6,-0x602(%rbp)
    c4bf:	e6 2b 
    c4c1:	66 c7 85 00 fa ff ff 	movw   $0xfffe,-0x600(%rbp)
    c4c8:	fe ff 
    c4ca:	66 c7 85 02 fa ff ff 	movw   $0x0,-0x5fe(%rbp)
    c4d1:	00 00 
    c4d3:	66 c7 85 04 fa ff ff 	movw   $0x63c2,-0x5fc(%rbp)
    c4da:	c2 63 
    c4dc:	66 c7 85 06 fa ff ff 	movw   $0xa80e,-0x5fa(%rbp)
    c4e3:	0e a8 
    c4e5:	66 c7 85 08 fa ff ff 	movw   $0xfffd,-0x5f8(%rbp)
    c4ec:	fd ff 
    c4ee:	66 c7 85 0a fa ff ff 	movw   $0x2149,-0x5f6(%rbp)
    c4f5:	49 21 
    c4f7:	66 c7 85 0c fa ff ff 	movw   $0x1,-0x5f4(%rbp)
    c4fe:	01 00 
    c500:	66 c7 85 0e fa ff ff 	movw   $0x61ea,-0x5f2(%rbp)
    c507:	ea 61 
    c509:	66 c7 85 10 fa ff ff 	movw   $0x15b6,-0x5f0(%rbp)
    c510:	b6 15 
    c512:	66 c7 85 12 fa ff ff 	movw   $0xc3de,-0x5ee(%rbp)
    c519:	de c3 
    c51b:	66 c7 85 14 fa ff ff 	movw   $0x15b6,-0x5ec(%rbp)
    c522:	b6 15 
    c524:	66 c7 85 16 fa ff ff 	movw   $0x61ea,-0x5ea(%rbp)
    c52b:	ea 61 
    c52d:	66 c7 85 18 fa ff ff 	movw   $0x1,-0x5e8(%rbp)
    c534:	01 00 
    c536:	66 c7 85 1a fa ff ff 	movw   $0x2149,-0x5e6(%rbp)
    c53d:	49 21 
    c53f:	66 c7 85 1c fa ff ff 	movw   $0xfffd,-0x5e4(%rbp)
    c546:	fd ff 
    c548:	66 c7 85 1e fa ff ff 	movw   $0xa80e,-0x5e2(%rbp)
    c54f:	0e a8 
    c551:	66 c7 85 20 fa ff ff 	movw   $0x63c2,-0x5e0(%rbp)
    c558:	c2 63 
    c55a:	66 c7 85 22 fa ff ff 	movw   $0x0,-0x5de(%rbp)
    c561:	00 00 
    c563:	66 c7 85 24 fa ff ff 	movw   $0xfffe,-0x5dc(%rbp)
    c56a:	fe ff 
    c56c:	66 c7 85 26 fa ff ff 	movw   $0x2be6,-0x5da(%rbp)
    c573:	e6 2b 
    c575:	66 c7 85 28 fa ff ff 	movw   $0x87de,-0x5d8(%rbp)
    c57c:	de 87 
    c57e:	66 c7 85 2a fa ff ff 	movw   $0x2be6,-0x5d6(%rbp)
    c585:	e6 2b 
    c587:	66 c7 85 2c fa ff ff 	movw   $0xfffe,-0x5d4(%rbp)
    c58e:	fe ff 
    c590:	66 c7 85 2e fa ff ff 	movw   $0x0,-0x5d2(%rbp)
    c597:	00 00 
    c599:	c7 85 a8 f8 ff ff 07 	movl   $0x15d36307,-0x758(%rbp)
    c5a0:	63 d3 15 
    c5a3:	48 8d 05 ae 03 02 00 	lea    0x203ae(%rip),%rax        # 2c958 <g_1368>
    c5aa:	48 89 85 c0 f8 ff ff 	mov    %rax,-0x740(%rbp)
    c5b1:	48 8d 85 c0 f8 ff ff 	lea    -0x740(%rbp),%rax
    c5b8:	48 89 85 e8 f8 ff ff 	mov    %rax,-0x718(%rbp)
    c5bf:	48 8d 05 6e ab 01 00 	lea    0x1ab6e(%rip),%rax        # 27134 <g_135+0x4>
    c5c6:	48 89 85 f0 f8 ff ff 	mov    %rax,-0x710(%rbp)
    c5cd:	48 c7 85 c8 f8 ff ff 	movq   $0x0,-0x738(%rbp)
    c5d4:	00 00 00 00 
    c5d8:	48 8d 85 c8 f8 ff ff 	lea    -0x738(%rbp),%rax
    c5df:	48 89 85 f8 f8 ff ff 	mov    %rax,-0x708(%rbp)
    c5e6:	48 8d 85 80 fb ff ff 	lea    -0x480(%rbp),%rax
    c5ed:	48 8d 15 6c e1 01 00 	lea    0x1e16c(%rip),%rdx        # 2a760 <g_4180+0x18>
    c5f4:	b9 3f 00 00 00       	mov    $0x3f,%ecx
    c5f9:	48 89 c7             	mov    %rax,%rdi
    c5fc:	48 89 d6             	mov    %rdx,%rsi
    c5ff:	f3 48 a5             	rep movsq %ds:(%rsi),%es:(%rdi)
    c602:	48 8d 05 29 ae 01 00 	lea    0x1ae29(%rip),%rax        # 27432 <g_585+0x12>
    c609:	48 89 85 00 f9 ff ff 	mov    %rax,-0x700(%rbp)
    c610:	48 c7 85 08 f9 ff ff 	movq   $0x0,-0x6f8(%rbp)
    c617:	00 00 00 00 
    c61b:	48 c7 85 60 f9 ff ff 	movq   $0x0,-0x6a0(%rbp)
    c622:	00 00 00 00 
    c626:	48 c7 85 68 f9 ff ff 	movq   $0x0,-0x698(%rbp)
    c62d:	00 00 00 00 
    c631:	48 c7 85 70 f9 ff ff 	movq   $0x0,-0x690(%rbp)
    c638:	00 00 00 00 
    c63c:	48 c7 85 78 f9 ff ff 	movq   $0x0,-0x688(%rbp)
    c643:	00 00 00 00 
    c647:	48 c7 85 80 f9 ff ff 	movq   $0x0,-0x680(%rbp)
    c64e:	00 00 00 00 
    c652:	48 c7 85 88 f9 ff ff 	movq   $0x0,-0x678(%rbp)
    c659:	00 00 00 00 
    c65d:	48 c7 85 90 f9 ff ff 	movq   $0x0,-0x670(%rbp)
    c664:	00 00 00 00 
    c668:	c7 85 ac f8 ff ff fd 	movl   $0x1e42f5fd,-0x754(%rbp)
    c66f:	f5 42 1e 
    c672:	48 8d 05 df a9 01 00 	lea    0x1a9df(%rip),%rax        # 27058 <g_70>
    c679:	48 89 85 10 f9 ff ff 	mov    %rax,-0x6f0(%rbp)
    c680:	48 83 bd d8 f8 ff ff 	cmpq   $0x0,-0x728(%rbp)
    c687:	00 
    c688:	0f 84 e5 08 00 00    	je     cf73 <func_35+0xcb1>
    c68e:	66 c7 85 a2 f8 ff ff 	movw   $0x20eb,-0x75e(%rbp)
    c695:	eb 20 
    c697:	66 c7 85 a4 f8 ff ff 	movw   $0x270e,-0x75c(%rbp)
    c69e:	0e 27 
    c6a0:	48 c7 85 18 f9 ff ff 	movq   $0x0,-0x6e8(%rbp)
    c6a7:	00 00 00 00 
    c6ab:	48 8d 05 4e ad 01 00 	lea    0x1ad4e(%rip),%rax        # 27400 <g_578>
    c6b2:	48 89 85 20 f9 ff ff 	mov    %rax,-0x6e0(%rbp)
    c6b9:	c7 85 b4 f8 ff ff ef 	movl   $0xbb2b60ef,-0x74c(%rbp)
    c6c0:	60 2b bb 
    c6c3:	c7 85 b8 f8 ff ff 00 	movl   $0x0,-0x748(%rbp)
    c6ca:	00 00 00 
    c6cd:	c7 85 bc f8 ff ff 4e 	movl   $0x9d32c14e,-0x744(%rbp)
    c6d4:	c1 32 9d 
    c6d7:	48 8d 05 3a 02 02 00 	lea    0x2023a(%rip),%rax        # 2c918 <g_890>
    c6de:	48 89 85 28 f9 ff ff 	mov    %rax,-0x6d8(%rbp)
    c6e5:	48 8d 05 5c 01 02 00 	lea    0x2015c(%rip),%rax        # 2c848 <g_330>
    c6ec:	48 89 85 d0 f8 ff ff 	mov    %rax,-0x730(%rbp)
    c6f3:	48 8d 85 d0 f8 ff ff 	lea    -0x730(%rbp),%rax
    c6fa:	48 89 85 80 fd ff ff 	mov    %rax,-0x280(%rbp)
    c701:	48 8d 85 d0 f8 ff ff 	lea    -0x730(%rbp),%rax
    c708:	48 89 85 88 fd ff ff 	mov    %rax,-0x278(%rbp)
    c70f:	48 8d 85 d0 f8 ff ff 	lea    -0x730(%rbp),%rax
    c716:	48 89 85 90 fd ff ff 	mov    %rax,-0x270(%rbp)
    c71d:	48 8d 85 d0 f8 ff ff 	lea    -0x730(%rbp),%rax
    c724:	48 89 85 98 fd ff ff 	mov    %rax,-0x268(%rbp)
    c72b:	48 8d 85 d0 f8 ff ff 	lea    -0x730(%rbp),%rax
    c732:	48 89 85 a0 fd ff ff 	mov    %rax,-0x260(%rbp)
    c739:	48 8d 85 d0 f8 ff ff 	lea    -0x730(%rbp),%rax
    c740:	48 89 85 a8 fd ff ff 	mov    %rax,-0x258(%rbp)
    c747:	48 8d 85 d0 f8 ff ff 	lea    -0x730(%rbp),%rax
    c74e:	48 89 85 b0 fd ff ff 	mov    %rax,-0x250(%rbp)
    c755:	48 8d 85 d0 f8 ff ff 	lea    -0x730(%rbp),%rax
    c75c:	48 89 85 b8 fd ff ff 	mov    %rax,-0x248(%rbp)
    c763:	48 8d 85 d0 f8 ff ff 	lea    -0x730(%rbp),%rax
    c76a:	48 89 85 c0 fd ff ff 	mov    %rax,-0x240(%rbp)
    c771:	48 8d 85 d0 f8 ff ff 	lea    -0x730(%rbp),%rax
    c778:	48 89 85 c8 fd ff ff 	mov    %rax,-0x238(%rbp)
    c77f:	48 8d 85 d0 f8 ff ff 	lea    -0x730(%rbp),%rax
    c786:	48 89 85 d0 fd ff ff 	mov    %rax,-0x230(%rbp)
    c78d:	48 8d 85 d0 f8 ff ff 	lea    -0x730(%rbp),%rax
    c794:	48 89 85 d8 fd ff ff 	mov    %rax,-0x228(%rbp)
    c79b:	48 8d 85 d0 f8 ff ff 	lea    -0x730(%rbp),%rax
    c7a2:	48 89 85 e0 fd ff ff 	mov    %rax,-0x220(%rbp)
    c7a9:	48 8d 85 d0 f8 ff ff 	lea    -0x730(%rbp),%rax
    c7b0:	48 89 85 e8 fd ff ff 	mov    %rax,-0x218(%rbp)
    c7b7:	48 8d 85 d0 f8 ff ff 	lea    -0x730(%rbp),%rax
    c7be:	48 89 85 f0 fd ff ff 	mov    %rax,-0x210(%rbp)
    c7c5:	48 8d 85 d0 f8 ff ff 	lea    -0x730(%rbp),%rax
    c7cc:	48 89 85 f8 fd ff ff 	mov    %rax,-0x208(%rbp)
    c7d3:	48 8d 85 d0 f8 ff ff 	lea    -0x730(%rbp),%rax
    c7da:	48 89 85 00 fe ff ff 	mov    %rax,-0x200(%rbp)
    c7e1:	48 8d 85 d0 f8 ff ff 	lea    -0x730(%rbp),%rax
    c7e8:	48 89 85 08 fe ff ff 	mov    %rax,-0x1f8(%rbp)
    c7ef:	48 8d 85 d0 f8 ff ff 	lea    -0x730(%rbp),%rax
    c7f6:	48 89 85 10 fe ff ff 	mov    %rax,-0x1f0(%rbp)
    c7fd:	48 8d 85 d0 f8 ff ff 	lea    -0x730(%rbp),%rax
    c804:	48 89 85 18 fe ff ff 	mov    %rax,-0x1e8(%rbp)
    c80b:	48 8d 85 d0 f8 ff ff 	lea    -0x730(%rbp),%rax
    c812:	48 89 85 20 fe ff ff 	mov    %rax,-0x1e0(%rbp)
    c819:	48 8d 85 d0 f8 ff ff 	lea    -0x730(%rbp),%rax
    c820:	48 89 85 28 fe ff ff 	mov    %rax,-0x1d8(%rbp)
    c827:	48 8d 85 d0 f8 ff ff 	lea    -0x730(%rbp),%rax
    c82e:	48 89 85 30 fe ff ff 	mov    %rax,-0x1d0(%rbp)
    c835:	48 8d 85 d0 f8 ff ff 	lea    -0x730(%rbp),%rax
    c83c:	48 89 85 38 fe ff ff 	mov    %rax,-0x1c8(%rbp)
    c843:	48 8d 85 d0 f8 ff ff 	lea    -0x730(%rbp),%rax
    c84a:	48 89 85 40 fe ff ff 	mov    %rax,-0x1c0(%rbp)
    c851:	48 8d 85 d0 f8 ff ff 	lea    -0x730(%rbp),%rax
    c858:	48 89 85 48 fe ff ff 	mov    %rax,-0x1b8(%rbp)
    c85f:	48 8d 85 d0 f8 ff ff 	lea    -0x730(%rbp),%rax
    c866:	48 89 85 50 fe ff ff 	mov    %rax,-0x1b0(%rbp)
    c86d:	48 8d 85 d0 f8 ff ff 	lea    -0x730(%rbp),%rax
    c874:	48 89 85 58 fe ff ff 	mov    %rax,-0x1a8(%rbp)
    c87b:	48 8d 85 d0 f8 ff ff 	lea    -0x730(%rbp),%rax
    c882:	48 89 85 60 fe ff ff 	mov    %rax,-0x1a0(%rbp)
    c889:	48 8d 85 d0 f8 ff ff 	lea    -0x730(%rbp),%rax
    c890:	48 89 85 68 fe ff ff 	mov    %rax,-0x198(%rbp)
    c897:	48 8d 85 d0 f8 ff ff 	lea    -0x730(%rbp),%rax
    c89e:	48 89 85 70 fe ff ff 	mov    %rax,-0x190(%rbp)
    c8a5:	48 8d 85 d0 f8 ff ff 	lea    -0x730(%rbp),%rax
    c8ac:	48 89 85 78 fe ff ff 	mov    %rax,-0x188(%rbp)
    c8b3:	48 8d 85 d0 f8 ff ff 	lea    -0x730(%rbp),%rax
    c8ba:	48 89 85 80 fe ff ff 	mov    %rax,-0x180(%rbp)
    c8c1:	48 8d 85 d0 f8 ff ff 	lea    -0x730(%rbp),%rax
    c8c8:	48 89 85 88 fe ff ff 	mov    %rax,-0x178(%rbp)
    c8cf:	48 8d 85 d0 f8 ff ff 	lea    -0x730(%rbp),%rax
    c8d6:	48 89 85 90 fe ff ff 	mov    %rax,-0x170(%rbp)
    c8dd:	48 8d 85 d0 f8 ff ff 	lea    -0x730(%rbp),%rax
    c8e4:	48 89 85 98 fe ff ff 	mov    %rax,-0x168(%rbp)
    c8eb:	48 8d 85 d0 f8 ff ff 	lea    -0x730(%rbp),%rax
    c8f2:	48 89 85 a0 fe ff ff 	mov    %rax,-0x160(%rbp)
    c8f9:	48 8d 85 d0 f8 ff ff 	lea    -0x730(%rbp),%rax
    c900:	48 89 85 a8 fe ff ff 	mov    %rax,-0x158(%rbp)
    c907:	48 8d 85 d0 f8 ff ff 	lea    -0x730(%rbp),%rax
    c90e:	48 89 85 b0 fe ff ff 	mov    %rax,-0x150(%rbp)
    c915:	48 8d 85 d0 f8 ff ff 	lea    -0x730(%rbp),%rax
    c91c:	48 89 85 b8 fe ff ff 	mov    %rax,-0x148(%rbp)
    c923:	48 8d 85 d0 f8 ff ff 	lea    -0x730(%rbp),%rax
    c92a:	48 89 85 c0 fe ff ff 	mov    %rax,-0x140(%rbp)
    c931:	48 8d 85 d0 f8 ff ff 	lea    -0x730(%rbp),%rax
    c938:	48 89 85 c8 fe ff ff 	mov    %rax,-0x138(%rbp)
    c93f:	48 8d 85 d0 f8 ff ff 	lea    -0x730(%rbp),%rax
    c946:	48 89 85 d0 fe ff ff 	mov    %rax,-0x130(%rbp)
    c94d:	48 8d 85 d0 f8 ff ff 	lea    -0x730(%rbp),%rax
    c954:	48 89 85 d8 fe ff ff 	mov    %rax,-0x128(%rbp)
    c95b:	48 8d 85 d0 f8 ff ff 	lea    -0x730(%rbp),%rax
    c962:	48 89 85 e0 fe ff ff 	mov    %rax,-0x120(%rbp)
    c969:	48 8d 85 d0 f8 ff ff 	lea    -0x730(%rbp),%rax
    c970:	48 89 85 e8 fe ff ff 	mov    %rax,-0x118(%rbp)
    c977:	48 8d 85 d0 f8 ff ff 	lea    -0x730(%rbp),%rax
    c97e:	48 89 85 f0 fe ff ff 	mov    %rax,-0x110(%rbp)
    c985:	48 8d 85 d0 f8 ff ff 	lea    -0x730(%rbp),%rax
    c98c:	48 89 85 f8 fe ff ff 	mov    %rax,-0x108(%rbp)
    c993:	48 8d 85 d0 f8 ff ff 	lea    -0x730(%rbp),%rax
    c99a:	48 89 85 00 ff ff ff 	mov    %rax,-0x100(%rbp)
    c9a1:	48 8d 85 d0 f8 ff ff 	lea    -0x730(%rbp),%rax
    c9a8:	48 89 85 08 ff ff ff 	mov    %rax,-0xf8(%rbp)
    c9af:	48 8d 85 d0 f8 ff ff 	lea    -0x730(%rbp),%rax
    c9b6:	48 89 85 10 ff ff ff 	mov    %rax,-0xf0(%rbp)
    c9bd:	48 8d 85 d0 f8 ff ff 	lea    -0x730(%rbp),%rax
    c9c4:	48 89 85 18 ff ff ff 	mov    %rax,-0xe8(%rbp)
    c9cb:	48 8d 85 d0 f8 ff ff 	lea    -0x730(%rbp),%rax
    c9d2:	48 89 85 20 ff ff ff 	mov    %rax,-0xe0(%rbp)
    c9d9:	48 8d 85 d0 f8 ff ff 	lea    -0x730(%rbp),%rax
    c9e0:	48 89 85 28 ff ff ff 	mov    %rax,-0xd8(%rbp)
    c9e7:	48 8d 85 d0 f8 ff ff 	lea    -0x730(%rbp),%rax
    c9ee:	48 89 85 30 ff ff ff 	mov    %rax,-0xd0(%rbp)
    c9f5:	48 8d 85 d0 f8 ff ff 	lea    -0x730(%rbp),%rax
    c9fc:	48 89 85 38 ff ff ff 	mov    %rax,-0xc8(%rbp)
    ca03:	48 8d 85 d0 f8 ff ff 	lea    -0x730(%rbp),%rax
    ca0a:	48 89 85 40 ff ff ff 	mov    %rax,-0xc0(%rbp)
    ca11:	48 8d 85 d0 f8 ff ff 	lea    -0x730(%rbp),%rax
    ca18:	48 89 85 48 ff ff ff 	mov    %rax,-0xb8(%rbp)
    ca1f:	48 8d 85 d0 f8 ff ff 	lea    -0x730(%rbp),%rax
    ca26:	48 89 85 50 ff ff ff 	mov    %rax,-0xb0(%rbp)
    ca2d:	48 8d 85 d0 f8 ff ff 	lea    -0x730(%rbp),%rax
    ca34:	48 89 85 58 ff ff ff 	mov    %rax,-0xa8(%rbp)
    ca3b:	48 8d 85 d0 f8 ff ff 	lea    -0x730(%rbp),%rax
    ca42:	48 89 85 60 ff ff ff 	mov    %rax,-0xa0(%rbp)
    ca49:	48 8d 85 d0 f8 ff ff 	lea    -0x730(%rbp),%rax
    ca50:	48 89 85 68 ff ff ff 	mov    %rax,-0x98(%rbp)
    ca57:	48 8d 85 d0 f8 ff ff 	lea    -0x730(%rbp),%rax
    ca5e:	48 89 85 70 ff ff ff 	mov    %rax,-0x90(%rbp)
    ca65:	48 8d 85 d0 f8 ff ff 	lea    -0x730(%rbp),%rax
    ca6c:	48 89 85 78 ff ff ff 	mov    %rax,-0x88(%rbp)
    ca73:	48 8d 85 d0 f8 ff ff 	lea    -0x730(%rbp),%rax
    ca7a:	48 89 45 80          	mov    %rax,-0x80(%rbp)
    ca7e:	48 8d 85 d0 f8 ff ff 	lea    -0x730(%rbp),%rax
    ca85:	48 89 45 88          	mov    %rax,-0x78(%rbp)
    ca89:	48 8d 85 d0 f8 ff ff 	lea    -0x730(%rbp),%rax
    ca90:	48 89 45 90          	mov    %rax,-0x70(%rbp)
    ca94:	48 8d 85 d0 f8 ff ff 	lea    -0x730(%rbp),%rax
    ca9b:	48 89 45 98          	mov    %rax,-0x68(%rbp)
    ca9f:	48 8d 85 d0 f8 ff ff 	lea    -0x730(%rbp),%rax
    caa6:	48 89 45 a0          	mov    %rax,-0x60(%rbp)
    caaa:	48 8d 85 d0 f8 ff ff 	lea    -0x730(%rbp),%rax
    cab1:	48 89 45 a8          	mov    %rax,-0x58(%rbp)
    cab5:	48 8d 85 d0 f8 ff ff 	lea    -0x730(%rbp),%rax
    cabc:	48 89 45 b0          	mov    %rax,-0x50(%rbp)
    cac0:	48 8d 85 d0 f8 ff ff 	lea    -0x730(%rbp),%rax
    cac7:	48 89 45 b8          	mov    %rax,-0x48(%rbp)
    cacb:	48 8d 85 80 fd ff ff 	lea    -0x280(%rbp),%rax
    cad2:	48 83 c0 28          	add    $0x28,%rax
    cad6:	48 89 85 30 f9 ff ff 	mov    %rax,-0x6d0(%rbp)
    cadd:	48 8d 05 9c fd 01 00 	lea    0x1fd9c(%rip),%rax        # 2c880 <g_577>
    cae4:	48 89 85 38 f9 ff ff 	mov    %rax,-0x6c8(%rbp)
    caeb:	0f b6 05 44 a9 01 00 	movzbl 0x1a944(%rip),%eax        # 27436 <g_585+0x16>
    caf2:	0f b6 d8             	movzbl %al,%ebx
    caf5:	48 8b 05 4c a5 01 00 	mov    0x1a54c(%rip),%rax        # 27048 <g_18>
    cafc:	44 0f be e0          	movsbl %al,%r12d
    cb00:	48 8b 05 09 fd 01 00 	mov    0x1fd09(%rip),%rax        # 2c810 <g_157>
    cb07:	4c 8b 28             	mov    (%rax),%r13
    cb0a:	48 8b 05 37 a5 01 00 	mov    0x1a537(%rip),%rax        # 27048 <g_18>
    cb11:	41 89 c7             	mov    %eax,%r15d
    cb14:	66 83 bd a2 f8 ff ff 	cmpw   $0x0,-0x75e(%rbp)
    cb1b:	00 
    cb1c:	74 10                	je     cb2e <func_35+0x86c>
    cb1e:	83 bd 9c f8 ff ff 00 	cmpl   $0x0,-0x764(%rbp)
    cb25:	74 07                	je     cb2e <func_35+0x86c>
    cb27:	b8 01 00 00 00       	mov    $0x1,%eax
    cb2c:	eb 05                	jmp    cb33 <func_35+0x871>
    cb2e:	b8 00 00 00 00       	mov    $0x0,%eax
    cb33:	48 98                	cltq   
    cb35:	48 39 85 d8 f8 ff ff 	cmp    %rax,-0x728(%rbp)
    cb3c:	0f 92 c0             	setb   %al
    cb3f:	89 c2                	mov    %eax,%edx
    cb41:	0f b7 85 a4 f8 ff ff 	movzwl -0x75c(%rbp),%eax
    cb48:	31 d0                	xor    %edx,%eax
    cb4a:	44 0f be f0          	movsbl %al,%r14d
    cb4e:	0f b7 95 a2 f8 ff ff 	movzwl -0x75e(%rbp),%edx
    cb55:	0f b7 05 dc a4 01 00 	movzwl 0x1a4dc(%rip),%eax        # 27038 <g_10+0x8>
    cb5c:	0f b7 c8             	movzwl %ax,%ecx
    cb5f:	8b 85 9c f8 ff ff    	mov    -0x764(%rbp),%eax
    cb65:	89 ce                	mov    %ecx,%esi
    cb67:	89 c7                	mov    %eax,%edi
    cb69:	e8 82 e5 00 00       	call   1b0f0 <func_62>
    cb6e:	0f b7 c0             	movzwl %ax,%eax
    cb71:	25 13 3b 00 00       	and    $0x3b13,%eax
    cb76:	be 0a 00 00 00       	mov    $0xa,%esi
    cb7b:	89 c7                	mov    %eax,%edi
    cb7d:	e8 3b e2 ff ff       	call   adbd <safe_lshift_func_uint16_t_u_s>
    cb82:	66 89 05 ab a5 01 00 	mov    %ax,0x1a5ab(%rip)        # 27134 <g_135+0x4>
    cb89:	0f b7 05 a4 a5 01 00 	movzwl 0x1a5a4(%rip),%eax        # 27134 <g_135+0x4>
    cb90:	0f b7 c0             	movzwl %ax,%eax
    cb93:	48 8b 8d e0 f8 ff ff 	mov    -0x720(%rbp),%rcx
    cb9a:	48 8b 95 18 f9 ff ff 	mov    -0x6e8(%rbp),%rdx
    cba1:	49 89 c8             	mov    %rcx,%r8
    cba4:	44 89 f9             	mov    %r15d,%ecx
    cba7:	44 89 f6             	mov    %r14d,%esi
    cbaa:	89 c7                	mov    %eax,%edi
    cbac:	e8 68 d4 00 00       	call   1a019 <func_54>
    cbb1:	0f be c0             	movsbl %al,%eax
    cbb4:	89 c6                	mov    %eax,%esi
    cbb6:	bf 01 00 00 00       	mov    $0x1,%edi
    cbbb:	e8 17 d6 ff ff       	call   a1d7 <safe_add_func_int8_t_s_s>
    cbc0:	0f b7 85 0a fa ff ff 	movzwl -0x5f6(%rbp),%eax
    cbc7:	0f b7 c8             	movzwl %ax,%ecx
    cbca:	48 8d 85 70 f8 ff ff 	lea    -0x790(%rbp),%rax
    cbd1:	4c 89 ea             	mov    %r13,%rdx
    cbd4:	89 ce                	mov    %ecx,%esi
    cbd6:	48 89 c7             	mov    %rax,%rdi
    cbd9:	e8 6e 88 00 00       	call   1544c <func_49>
    cbde:	8b 85 98 f8 ff ff    	mov    -0x768(%rbp),%eax
    cbe4:	0f be c0             	movsbl %al,%eax
    cbe7:	44 89 e6             	mov    %r12d,%esi
    cbea:	89 c7                	mov    %eax,%edi
    cbec:	e8 04 d6 ff ff       	call   a1f5 <safe_sub_func_int8_t_s_s>
    cbf1:	ba 00 00 00 00       	mov    $0x0,%edx
    cbf6:	48 8b 85 20 f9 ff ff 	mov    -0x6e0(%rbp),%rax
    cbfd:	8b 00                	mov    (%rax),%eax
    cbff:	09 c2                	or     %eax,%edx
    cc01:	48 8b 85 20 f9 ff ff 	mov    -0x6e0(%rbp),%rax
    cc08:	89 10                	mov    %edx,(%rax)
    cc0a:	48 8b 85 20 f9 ff ff 	mov    -0x6e0(%rbp),%rax
    cc11:	8b 30                	mov    (%rax),%esi
    cc13:	8b 85 98 f8 ff ff    	mov    -0x768(%rbp),%eax
    cc19:	89 d9                	mov    %ebx,%ecx
    cc1b:	48 8d 15 26 a5 01 00 	lea    0x1a526(%rip),%rdx        # 27148 <g_176>
    cc22:	48 89 c7             	mov    %rax,%rdi
    cc25:	e8 45 2a 00 00       	call   f66f <func_42>
    cc2a:	48 89 c2             	mov    %rax,%rdx
    cc2d:	48 8b 05 14 fc 01 00 	mov    0x1fc14(%rip),%rax        # 2c848 <g_330>
    cc34:	48 8b 18             	mov    (%rax),%rbx
    cc37:	48 89 d7             	mov    %rdx,%rdi
    cc3a:	e8 f7 03 00 00       	call   d036 <func_40>
    cc3f:	89 03                	mov    %eax,(%rbx)
    cc41:	0f b7 05 80 b5 01 00 	movzwl 0x1b580(%rip),%eax        # 281c8 <g_2312+0x8>
    cc48:	66 85 c0             	test   %ax,%ax
    cc4b:	90                   	nop
    cc4c:	83 85 bc f8 ff ff 01 	addl   $0x1,-0x744(%rbp)
    cc53:	66 c7 05 cc a7 01 00 	movw   $0xfff7,0x1a7cc(%rip)        # 27428 <g_585+0x8>
    cc5a:	f7 ff 
    cc5c:	e9 ff 02 00 00       	jmp    cf60 <func_35+0xc9e>
    cc61:	48 8d 05 e0 a3 01 00 	lea    0x1a3e0(%rip),%rax        # 27048 <g_18>
    cc68:	48 89 85 40 f9 ff ff 	mov    %rax,-0x6c0(%rbp)
    cc6f:	48 c7 85 48 f9 ff ff 	movq   $0x0,-0x6b8(%rbp)
    cc76:	00 00 00 00 
    cc7a:	48 8d 05 4f b7 01 00 	lea    0x1b74f(%rip),%rax        # 283d0 <g_2856>
    cc81:	48 89 85 50 f9 ff ff 	mov    %rax,-0x6b0(%rbp)
    cc88:	48 8d 85 30 fa ff ff 	lea    -0x5d0(%rbp),%rax
    cc8f:	48 8d 15 ca 48 01 00 	lea    0x148ca(%rip),%rdx        # 21560 <g_4123+0x3f0>
    cc96:	b9 2a 00 00 00       	mov    $0x2a,%ecx
    cc9b:	48 89 c7             	mov    %rax,%rdi
    cc9e:	48 89 d6             	mov    %rdx,%rsi
    cca1:	f3 48 a5             	rep movsq %ds:(%rsi),%es:(%rdi)
    cca4:	48 c7 85 58 f9 ff ff 	movq   $0x0,-0x6a8(%rbp)
    ccab:	00 00 00 00 
    ccaf:	66 c7 85 a6 f8 ff ff 	movw   $0x6efa,-0x75a(%rbp)
    ccb6:	fa 6e 
    ccb8:	8b 85 9c f8 ff ff    	mov    -0x764(%rbp),%eax
    ccbe:	0f b7 d8             	movzwl %ax,%ebx
    ccc1:	8b 85 9c f8 ff ff    	mov    -0x764(%rbp),%eax
    ccc7:	44 0f be e0          	movsbl %al,%r12d
    cccb:	48 8b 05 4e fc 01 00 	mov    0x1fc4e(%rip),%rax        # 2c920 <g_889>
    ccd2:	48 8b 00             	mov    (%rax),%rax
    ccd5:	48 8b 00             	mov    (%rax),%rax
    ccd8:	0f b7 00             	movzwl (%rax),%eax
    ccdb:	89 c2                	mov    %eax,%edx
    ccdd:	8b 85 98 f8 ff ff    	mov    -0x768(%rbp),%eax
    cce3:	21 c2                	and    %eax,%edx
    cce5:	48 8b 05 34 fc 01 00 	mov    0x1fc34(%rip),%rax        # 2c920 <g_889>
    ccec:	48 8b 00             	mov    (%rax),%rax
    ccef:	48 8b 00             	mov    (%rax),%rax
    ccf2:	66 89 10             	mov    %dx,(%rax)
    ccf5:	0f b7 00             	movzwl (%rax),%eax
    ccf8:	41 89 c7             	mov    %eax,%r15d
    ccfb:	44 8b ad 9c f8 ff ff 	mov    -0x764(%rbp),%r13d
    cd02:	48 8b 05 57 fb 01 00 	mov    0x1fb57(%rip),%rax        # 2c860 <g_470>
    cd09:	0f b6 00             	movzbl (%rax),%eax
    cd0c:	44 0f be f0          	movsbl %al,%r14d
    cd10:	48 8b 05 09 fb 01 00 	mov    0x1fb09(%rip),%rax        # 2c820 <g_206>
    cd17:	0f b6 00             	movzbl (%rax),%eax
    cd1a:	0f b6 c0             	movzbl %al,%eax
    cd1d:	39 85 98 f8 ff ff    	cmp    %eax,-0x768(%rbp)
    cd23:	0f 92 c0             	setb   %al
    cd26:	0f b6 d0             	movzbl %al,%edx
    cd29:	48 83 bd 28 f9 ff ff 	cmpq   $0x0,-0x6d8(%rbp)
    cd30:	00 
    cd31:	0f 94 c0             	sete   %al
    cd34:	0f b6 c0             	movzbl %al,%eax
    cd37:	89 d6                	mov    %edx,%esi
    cd39:	89 c7                	mov    %eax,%edi
    cd3b:	e8 fc df ff ff       	call   ad3c <safe_mul_func_uint16_t_u_u>
    cd40:	89 c2                	mov    %eax,%edx
    cd42:	48 8b 05 d7 fa 01 00 	mov    0x1fad7(%rip),%rax        # 2c820 <g_206>
    cd49:	88 10                	mov    %dl,(%rax)
    cd4b:	0f b6 00             	movzbl (%rax),%eax
    cd4e:	0f b6 c0             	movzbl %al,%eax
    cd51:	41 39 c6             	cmp    %eax,%r14d
    cd54:	0f 9f c0             	setg   %al
    cd57:	0f b6 d0             	movzbl %al,%edx
    cd5a:	48 8b 85 40 f9 ff ff 	mov    -0x6c0(%rbp),%rax
    cd61:	48 89 10             	mov    %rdx,(%rax)
    cd64:	48 8b 85 40 f9 ff ff 	mov    -0x6c0(%rbp),%rax
    cd6b:	48 8b 00             	mov    (%rax),%rax
    cd6e:	49 39 c5             	cmp    %rax,%r13
    cd71:	0f 95 c0             	setne  %al
    cd74:	0f b6 d0             	movzbl %al,%edx
    cd77:	48 8b 85 50 f9 ff ff 	mov    -0x6b0(%rbp),%rax
    cd7e:	48 89 10             	mov    %rdx,(%rax)
    cd81:	44 8b ad 30 fa ff ff 	mov    -0x5d0(%rbp),%r13d
    cd88:	48 c7 85 30 f9 ff ff 	movq   $0x0,-0x6d0(%rbp)
    cd8f:	00 00 00 00 
    cd93:	be 0b ff ff ff       	mov    $0xffffff0b,%esi
    cd98:	bf 00 00 00 00       	mov    $0x0,%edi
    cd9d:	e8 12 d6 ff ff       	call   a3b4 <safe_add_func_int16_t_s_s>
    cda2:	0f be c0             	movsbl %al,%eax
    cda5:	44 89 ee             	mov    %r13d,%esi
    cda8:	89 c7                	mov    %eax,%edi
    cdaa:	e8 f3 d4 ff ff       	call   a2a2 <safe_lshift_func_int8_t_s_s>
    cdaf:	83 bd 98 f8 ff ff 00 	cmpl   $0x0,-0x768(%rbp)
    cdb6:	74 07                	je     cdbf <func_35+0xafd>
    cdb8:	b8 01 00 00 00       	mov    $0x1,%eax
    cdbd:	eb 05                	jmp    cdc4 <func_35+0xb02>
    cdbf:	b8 00 00 00 00       	mov    $0x0,%eax
    cdc4:	39 85 98 f8 ff ff    	cmp    %eax,-0x768(%rbp)
    cdca:	0f 93 c0             	setae  %al
    cdcd:	44 09 f8             	or     %r15d,%eax
    cdd0:	0f be c0             	movsbl %al,%eax
    cdd3:	be 42 00 00 00       	mov    $0x42,%esi
    cdd8:	89 c7                	mov    %eax,%edi
    cdda:	e8 8c d4 ff ff       	call   a26b <safe_div_func_int8_t_s_s>
    cddf:	0f be c0             	movsbl %al,%eax
    cde2:	44 89 e6             	mov    %r12d,%esi
    cde5:	89 c7                	mov    %eax,%edi
    cde7:	e8 27 d4 ff ff       	call   a213 <safe_mul_func_int8_t_s_s>
    cdec:	66 98                	cbtw   
    cdee:	0f b7 c0             	movzwl %ax,%eax
    cdf1:	89 de                	mov    %ebx,%esi
    cdf3:	89 c7                	mov    %eax,%edi
    cdf5:	e8 04 df ff ff       	call   acfe <safe_add_func_uint16_t_u_u>
    cdfa:	83 bd 9c f8 ff ff 00 	cmpl   $0x0,-0x764(%rbp)
    ce01:	74 07                	je     ce0a <func_35+0xb48>
    ce03:	b8 01 00 00 00       	mov    $0x1,%eax
    ce08:	eb 05                	jmp    ce0f <func_35+0xb4d>
    ce0a:	b8 00 00 00 00       	mov    $0x0,%eax
    ce0f:	98                   	cwtl   
    ce10:	be 01 00 00 00       	mov    $0x1,%esi
    ce15:	89 c7                	mov    %eax,%edi
    ce17:	e8 c4 d6 ff ff       	call   a4e0 <safe_lshift_func_int16_t_s_u>
    ce1c:	c6 85 a1 f8 ff ff 2f 	movb   $0x2f,-0x75f(%rbp)
    ce23:	0f b6 85 a1 f8 ff ff 	movzbl -0x75f(%rbp),%eax
    ce2a:	83 c0 01             	add    $0x1,%eax
    ce2d:	88 85 a1 f8 ff ff    	mov    %al,-0x75f(%rbp)
    ce33:	48 c7 05 d2 b5 01 00 	movq   $0xe,0x1b5d2(%rip)        # 28410 <g_2870>
    ce3a:	0e 00 00 00 
    ce3e:	eb 51                	jmp    ce91 <func_35+0xbcf>
    ce40:	48 8b 05 21 fb 01 00 	mov    0x1fb21(%rip),%rax        # 2c968 <g_1493>
    ce47:	48 8b 00             	mov    (%rax),%rax
    ce4a:	8b 00                	mov    (%rax),%eax
    ce4c:	85 c0                	test   %eax,%eax
    ce4e:	75 50                	jne    cea0 <func_35+0xbde>
    ce50:	48 8b 85 d0 f8 ff ff 	mov    -0x730(%rbp),%rax
    ce57:	48 8b 00             	mov    (%rax),%rax
    ce5a:	48 8b 00             	mov    (%rax),%rax
    ce5d:	8b 00                	mov    (%rax),%eax
    ce5f:	0b 85 98 f8 ff ff    	or     -0x768(%rbp),%eax
    ce65:	89 c2                	mov    %eax,%edx
    ce67:	48 8b 85 d0 f8 ff ff 	mov    -0x730(%rbp),%rax
    ce6e:	48 8b 00             	mov    (%rax),%rax
    ce71:	48 8b 00             	mov    (%rax),%rax
    ce74:	89 10                	mov    %edx,(%rax)
    ce76:	83 bd 98 f8 ff ff 00 	cmpl   $0x0,-0x768(%rbp)
    ce7d:	75 24                	jne    cea3 <func_35+0xbe1>
    ce7f:	48 8b 05 8a b5 01 00 	mov    0x1b58a(%rip),%rax        # 28410 <g_2870>
    ce86:	48 83 c0 01          	add    $0x1,%rax
    ce8a:	48 89 05 7f b5 01 00 	mov    %rax,0x1b57f(%rip)        # 28410 <g_2870>
    ce91:	48 8b 05 78 b5 01 00 	mov    0x1b578(%rip),%rax        # 28410 <g_2870>
    ce98:	48 83 f8 1d          	cmp    $0x1d,%rax
    ce9c:	75 a2                	jne    ce40 <func_35+0xb7e>
    ce9e:	eb 04                	jmp    cea4 <func_35+0xbe2>
    cea0:	90                   	nop
    cea1:	eb 01                	jmp    cea4 <func_35+0xbe2>
    cea3:	90                   	nop
    cea4:	48 8b 85 d0 f8 ff ff 	mov    -0x730(%rbp),%rax
    ceab:	48 8b 00             	mov    (%rax),%rax
    ceae:	48 8b 00             	mov    (%rax),%rax
    ceb1:	44 8b 20             	mov    (%rax),%r12d
    ceb4:	48 8b 05 95 bc 01 00 	mov    0x1bc95(%rip),%rax        # 28b50 <g_3178+0x690>
    cebb:	48 8b 85 38 f9 ff ff 	mov    -0x6c8(%rbp),%rax
    cec2:	48 3b 85 58 f9 ff ff 	cmp    -0x6a8(%rbp),%rax
    cec9:	0f 95 c0             	setne  %al
    cecc:	0f b6 d8             	movzbl %al,%ebx
    cecf:	48 8b 05 c2 fa 01 00 	mov    0x1fac2(%rip),%rax        # 2c998 <g_1708>
    ced6:	8b 00                	mov    (%rax),%eax
    ced8:	89 c2                	mov    %eax,%edx
    ceda:	48 8b 85 d0 f8 ff ff 	mov    -0x730(%rbp),%rax
    cee1:	48 8b 00             	mov    (%rax),%rax
    cee4:	48 8b 00             	mov    (%rax),%rax
    cee7:	8b 00                	mov    (%rax),%eax
    cee9:	85 c0                	test   %eax,%eax
    ceeb:	0f 95 c0             	setne  %al
    ceee:	21 d0                	and    %edx,%eax
    cef0:	0f be c0             	movsbl %al,%eax
    cef3:	be 05 00 00 00       	mov    $0x5,%esi
    cef8:	89 c7                	mov    %eax,%edi
    cefa:	e8 f0 d3 ff ff       	call   a2ef <safe_lshift_func_int8_t_s_u>
    ceff:	0f be c0             	movsbl %al,%eax
    cf02:	89 de                	mov    %ebx,%esi
    cf04:	89 c7                	mov    %eax,%edi
    cf06:	e8 c9 d4 ff ff       	call   a3d4 <safe_sub_func_int16_t_s_s>
    cf0b:	0f bf d0             	movswl %ax,%edx
    cf0e:	0f b7 85 a6 f8 ff ff 	movzwl -0x75a(%rbp),%eax
    cf15:	39 c2                	cmp    %eax,%edx
    cf17:	0f 9d c0             	setge  %al
    cf1a:	0f b6 c0             	movzbl %al,%eax
    cf1d:	41 39 c4             	cmp    %eax,%r12d
    cf20:	7c 07                	jl     cf29 <func_35+0xc67>
    cf22:	83 bd 98 f8 ff ff 00 	cmpl   $0x0,-0x768(%rbp)
    cf29:	c7 85 34 fb ff ff f9 	movl   $0xfffffff9,-0x4cc(%rbp)
    cf30:	ff ff ff 
    cf33:	66 83 bd a6 f8 ff ff 	cmpw   $0x0,-0x75a(%rbp)
    cf3a:	00 
    cf3b:	0f 85 98 00 00 00    	jne    cfd9 <func_35+0xd17>
    cf41:	0f b7 05 e0 a4 01 00 	movzwl 0x1a4e0(%rip),%eax        # 27428 <g_585+0x8>
    cf48:	0f be c0             	movsbl %al,%eax
    cf4b:	be 09 00 00 00       	mov    $0x9,%esi
    cf50:	89 c7                	mov    %eax,%edi
    cf52:	e8 80 d2 ff ff       	call   a1d7 <safe_add_func_int8_t_s_s>
    cf57:	66 98                	cbtw   
    cf59:	66 89 05 c8 a4 01 00 	mov    %ax,0x1a4c8(%rip)        # 27428 <g_585+0x8>
    cf60:	0f b7 05 c1 a4 01 00 	movzwl 0x1a4c1(%rip),%eax        # 27428 <g_585+0x8>
    cf67:	66 83 f8 2d          	cmp    $0x2d,%ax
    cf6b:	0f 85 f0 fc ff ff    	jne    cc61 <func_35+0x99f>
    cf71:	eb 67                	jmp    cfda <func_35+0xd18>
    cf73:	c7 85 b0 f8 ff ff dc 	movl   $0x66374ddc,-0x750(%rbp)
    cf7a:	4d 37 66 
    cf7d:	48 8b 05 a4 f9 01 00 	mov    0x1f9a4(%rip),%rax        # 2c928 <g_1071>
    cf84:	48 8b 00             	mov    (%rax),%rax
    cf87:	89 c2                	mov    %eax,%edx
    cf89:	8b 85 b0 f8 ff ff    	mov    -0x750(%rbp),%eax
    cf8f:	31 d0                	xor    %edx,%eax
    cf91:	89 85 b0 f8 ff ff    	mov    %eax,-0x750(%rbp)
    cf97:	48 83 bd e8 f8 ff ff 	cmpq   $0x0,-0x718(%rbp)
    cf9e:	00 
    cf9f:	0f 94 c0             	sete   %al
    cfa2:	0f b6 c0             	movzbl %al,%eax
    cfa5:	23 85 b0 f8 ff ff    	and    -0x750(%rbp),%eax
    cfab:	85 c0                	test   %eax,%eax
    cfad:	0f 9f c2             	setg   %dl
    cfb0:	48 8b 05 11 f8 01 00 	mov    0x1f811(%rip),%rax        # 2c7c8 <g_99>
    cfb7:	88 10                	mov    %dl,(%rax)
    cfb9:	0f b6 00             	movzbl (%rax),%eax
    cfbc:	83 f0 01             	xor    $0x1,%eax
    cfbf:	48 0f be d0          	movsbq %al,%rdx
    cfc3:	48 8b 05 96 f9 01 00 	mov    0x1f996(%rip),%rax        # 2c960 <g_1494>
    cfca:	8b 08                	mov    (%rax),%ecx
    cfcc:	48 8b 05 8d f9 01 00 	mov    0x1f98d(%rip),%rax        # 2c960 <g_1494>
    cfd3:	09 ca                	or     %ecx,%edx
    cfd5:	89 10                	mov    %edx,(%rax)
    cfd7:	eb 01                	jmp    cfda <func_35+0xd18>
    cfd9:	90                   	nop
    cfda:	48 8d 85 a8 f8 ff ff 	lea    -0x758(%rbp),%rax
    cfe1:	48 89 85 e0 f8 ff ff 	mov    %rax,-0x720(%rbp)
    cfe8:	48 8b 85 e0 f8 ff ff 	mov    -0x720(%rbp),%rax
    cfef:	48 89 85 10 f9 ff ff 	mov    %rax,-0x6f0(%rbp)
    cff6:	48 8b 05 5b f8 01 00 	mov    0x1f85b(%rip),%rax        # 2c858 <g_456>
    cffd:	48 8b 00             	mov    (%rax),%rax
    d000:	48 8b 95 10 f9 ff ff 	mov    -0x6f0(%rbp),%rdx
    d007:	48 89 10             	mov    %rdx,(%rax)
    d00a:	8b 85 9c f8 ff ff    	mov    -0x764(%rbp),%eax
    d010:	48 8b 55 c8          	mov    -0x38(%rbp),%rdx
    d014:	64 48 2b 14 25 28 00 	sub    %fs:0x28,%rdx
    d01b:	00 00 
    d01d:	74 05                	je     d024 <func_35+0xd62>
    d01f:	e8 4c d0 ff ff       	call   a070 <__stack_chk_fail@plt>
    d024:	48 81 c4 68 07 00 00 	add    $0x768,%rsp
    d02b:	5b                   	pop    %rbx
    d02c:	41 5c                	pop    %r12
    d02e:	41 5d                	pop    %r13
    d030:	41 5e                	pop    %r14
    d032:	41 5f                	pop    %r15
    d034:	5d                   	pop    %rbp
    d035:	c3                   	ret    

000000000000d036 <func_40>:
    d036:	f3 0f 1e fa          	endbr64 
    d03a:	55                   	push   %rbp
    d03b:	48 89 e5             	mov    %rsp,%rbp
    d03e:	41 57                	push   %r15
    d040:	41 56                	push   %r14
    d042:	41 55                	push   %r13
    d044:	41 54                	push   %r12
    d046:	53                   	push   %rbx
    d047:	48 81 ec 00 10 00 00 	sub    $0x1000,%rsp
    d04e:	48 83 0c 24 00       	orq    $0x0,(%rsp)
    d053:	48 81 ec b8 00 00 00 	sub    $0xb8,%rsp
    d05a:	48 89 bd 28 ef ff ff 	mov    %rdi,-0x10d8(%rbp)
    d061:	64 48 8b 04 25 28 00 	mov    %fs:0x28,%rax
    d068:	00 00 
    d06a:	48 89 45 c8          	mov    %rax,-0x38(%rbp)
    d06e:	31 c0                	xor    %eax,%eax
    d070:	c7 85 7c ef ff ff 96 	movl   $0x38b34796,-0x1084(%rbp)
    d077:	47 b3 38 
    d07a:	c7 85 50 ef ff ff 13 	movl   $0x73993313,-0x10b0(%rbp)
    d081:	33 99 73 
    d084:	48 8d 05 e5 9f 01 00 	lea    0x19fe5(%rip),%rax        # 27070 <g_100>
    d08b:	48 89 85 18 f0 ff ff 	mov    %rax,-0xfe8(%rbp)
    d092:	48 8d 85 00 f5 ff ff 	lea    -0xb00(%rbp),%rax
    d099:	48 8d 15 c0 d8 01 00 	lea    0x1d8c0(%rip),%rdx        # 2a960 <g_4180+0x218>
    d0a0:	b9 31 00 00 00       	mov    $0x31,%ecx
    d0a5:	48 89 c7             	mov    %rax,%rdi
    d0a8:	48 89 d6             	mov    %rdx,%rsi
    d0ab:	f3 48 a5             	rep movsq %ds:(%rsi),%es:(%rdi)
    d0ae:	48 8d 85 00 f5 ff ff 	lea    -0xb00(%rbp),%rax
    d0b5:	48 05 28 01 00 00    	add    $0x128,%rax
    d0bb:	48 89 85 60 f1 ff ff 	mov    %rax,-0xea0(%rbp)
    d0c2:	48 8d 85 00 f5 ff ff 	lea    -0xb00(%rbp),%rax
    d0c9:	48 05 28 01 00 00    	add    $0x128,%rax
    d0cf:	48 89 85 68 f1 ff ff 	mov    %rax,-0xe98(%rbp)
    d0d6:	48 8d 85 00 f5 ff ff 	lea    -0xb00(%rbp),%rax
    d0dd:	48 05 28 01 00 00    	add    $0x128,%rax
    d0e3:	48 89 85 70 f1 ff ff 	mov    %rax,-0xe90(%rbp)
    d0ea:	48 8d 85 00 f5 ff ff 	lea    -0xb00(%rbp),%rax
    d0f1:	48 05 28 01 00 00    	add    $0x128,%rax
    d0f7:	48 89 85 78 f1 ff ff 	mov    %rax,-0xe88(%rbp)
    d0fe:	48 8d 85 00 f5 ff ff 	lea    -0xb00(%rbp),%rax
    d105:	48 05 28 01 00 00    	add    $0x128,%rax
    d10b:	48 89 85 80 f1 ff ff 	mov    %rax,-0xe80(%rbp)
    d112:	48 8d 85 00 f5 ff ff 	lea    -0xb00(%rbp),%rax
    d119:	48 05 28 01 00 00    	add    $0x128,%rax
    d11f:	48 89 85 88 f1 ff ff 	mov    %rax,-0xe78(%rbp)
    d126:	48 8d 85 00 f5 ff ff 	lea    -0xb00(%rbp),%rax
    d12d:	48 05 28 01 00 00    	add    $0x128,%rax
    d133:	48 89 85 90 f1 ff ff 	mov    %rax,-0xe70(%rbp)
    d13a:	48 8d 85 00 f5 ff ff 	lea    -0xb00(%rbp),%rax
    d141:	48 05 28 01 00 00    	add    $0x128,%rax
    d147:	48 89 85 98 f1 ff ff 	mov    %rax,-0xe68(%rbp)
    d14e:	48 c7 85 a0 f1 ff ff 	movq   $0x0,-0xe60(%rbp)
    d155:	00 00 00 00 
    d159:	48 8d 05 c0 a2 01 00 	lea    0x1a2c0(%rip),%rax        # 27420 <g_585>
    d160:	48 89 85 20 f0 ff ff 	mov    %rax,-0xfe0(%rbp)
    d167:	66 c7 85 48 ef ff ff 	movw   $0x8,-0x10b8(%rbp)
    d16e:	08 00 
    d170:	c7 85 10 f3 ff ff e2 	movl   $0x256899e2,-0xcf0(%rbp)
    d177:	99 68 25 
    d17a:	c7 85 14 f3 ff ff 00 	movl   $0x0,-0xcec(%rbp)
    d181:	00 00 00 
    d184:	c7 85 18 f3 ff ff 01 	movl   $0x1,-0xce8(%rbp)
    d18b:	00 00 00 
    d18e:	c7 85 1c f3 ff ff d5 	movl   $0xea6d52d5,-0xce4(%rbp)
    d195:	52 6d ea 
    d198:	c7 85 20 f3 ff ff 01 	movl   $0x1,-0xce0(%rbp)
    d19f:	00 00 00 
    d1a2:	c7 85 24 f3 ff ff 00 	movl   $0x0,-0xcdc(%rbp)
    d1a9:	00 00 00 
    d1ac:	c7 85 28 f3 ff ff e2 	movl   $0x256899e2,-0xcd8(%rbp)
    d1b3:	99 68 25 
    d1b6:	c7 85 2c f3 ff ff e2 	movl   $0x256899e2,-0xcd4(%rbp)
    d1bd:	99 68 25 
    d1c0:	c7 85 30 f3 ff ff 00 	movl   $0x0,-0xcd0(%rbp)
    d1c7:	00 00 00 
    d1ca:	c7 85 34 f3 ff ff 01 	movl   $0x1,-0xccc(%rbp)
    d1d1:	00 00 00 
    d1d4:	c7 85 38 f3 ff ff d5 	movl   $0xea6d52d5,-0xcc8(%rbp)
    d1db:	52 6d ea 
    d1de:	c7 85 3c f3 ff ff 01 	movl   $0x1,-0xcc4(%rbp)
    d1e5:	00 00 00 
    d1e8:	c7 85 40 f3 ff ff 00 	movl   $0x0,-0xcc0(%rbp)
    d1ef:	00 00 00 
    d1f2:	c7 85 44 f3 ff ff e2 	movl   $0x256899e2,-0xcbc(%rbp)
    d1f9:	99 68 25 
    d1fc:	c7 85 48 f3 ff ff e2 	movl   $0x256899e2,-0xcb8(%rbp)
    d203:	99 68 25 
    d206:	c7 85 4c f3 ff ff 00 	movl   $0x0,-0xcb4(%rbp)
    d20d:	00 00 00 
    d210:	c7 85 50 f3 ff ff 01 	movl   $0x1,-0xcb0(%rbp)
    d217:	00 00 00 
    d21a:	c7 85 54 f3 ff ff d5 	movl   $0xea6d52d5,-0xcac(%rbp)
    d221:	52 6d ea 
    d224:	c7 85 58 f3 ff ff 01 	movl   $0x1,-0xca8(%rbp)
    d22b:	00 00 00 
    d22e:	c7 85 5c f3 ff ff 00 	movl   $0x0,-0xca4(%rbp)
    d235:	00 00 00 
    d238:	c7 85 60 f3 ff ff e2 	movl   $0x256899e2,-0xca0(%rbp)
    d23f:	99 68 25 
    d242:	c7 85 64 f3 ff ff e2 	movl   $0x256899e2,-0xc9c(%rbp)
    d249:	99 68 25 
    d24c:	c7 85 68 f3 ff ff 00 	movl   $0x0,-0xc98(%rbp)
    d253:	00 00 00 
    d256:	c7 85 6c f3 ff ff 01 	movl   $0x1,-0xc94(%rbp)
    d25d:	00 00 00 
    d260:	c7 85 70 f3 ff ff d5 	movl   $0xea6d52d5,-0xc90(%rbp)
    d267:	52 6d ea 
    d26a:	c7 85 74 f3 ff ff 01 	movl   $0x1,-0xc8c(%rbp)
    d271:	00 00 00 
    d274:	c7 85 78 f3 ff ff 00 	movl   $0x0,-0xc88(%rbp)
    d27b:	00 00 00 
    d27e:	c7 85 7c f3 ff ff e2 	movl   $0x256899e2,-0xc84(%rbp)
    d285:	99 68 25 
    d288:	c7 85 80 f3 ff ff e2 	movl   $0x256899e2,-0xc80(%rbp)
    d28f:	99 68 25 
    d292:	c7 85 84 f3 ff ff 00 	movl   $0x0,-0xc7c(%rbp)
    d299:	00 00 00 
    d29c:	c7 85 88 f3 ff ff 01 	movl   $0x1,-0xc78(%rbp)
    d2a3:	00 00 00 
    d2a6:	c7 85 8c f3 ff ff d5 	movl   $0xea6d52d5,-0xc74(%rbp)
    d2ad:	52 6d ea 
    d2b0:	c7 85 90 f3 ff ff 01 	movl   $0x1,-0xc70(%rbp)
    d2b7:	00 00 00 
    d2ba:	c7 85 94 f3 ff ff 00 	movl   $0x0,-0xc6c(%rbp)
    d2c1:	00 00 00 
    d2c4:	c7 85 98 f3 ff ff e2 	movl   $0x256899e2,-0xc68(%rbp)
    d2cb:	99 68 25 
    d2ce:	c7 85 9c f3 ff ff e2 	movl   $0x256899e2,-0xc64(%rbp)
    d2d5:	99 68 25 
    d2d8:	c7 85 a0 f3 ff ff 00 	movl   $0x0,-0xc60(%rbp)
    d2df:	00 00 00 
    d2e2:	c7 85 a4 f3 ff ff 01 	movl   $0x1,-0xc5c(%rbp)
    d2e9:	00 00 00 
    d2ec:	c7 85 a8 f3 ff ff d5 	movl   $0xea6d52d5,-0xc58(%rbp)
    d2f3:	52 6d ea 
    d2f6:	c7 85 ac f3 ff ff 01 	movl   $0x1,-0xc54(%rbp)
    d2fd:	00 00 00 
    d300:	c7 85 b0 f3 ff ff 00 	movl   $0x0,-0xc50(%rbp)
    d307:	00 00 00 
    d30a:	c7 85 b4 f3 ff ff e2 	movl   $0x256899e2,-0xc4c(%rbp)
    d311:	99 68 25 
    d314:	c7 85 b8 f3 ff ff e2 	movl   $0x256899e2,-0xc48(%rbp)
    d31b:	99 68 25 
    d31e:	c7 85 bc f3 ff ff 00 	movl   $0x0,-0xc44(%rbp)
    d325:	00 00 00 
    d328:	c7 85 c0 f3 ff ff 01 	movl   $0x1,-0xc40(%rbp)
    d32f:	00 00 00 
    d332:	c7 85 c4 f3 ff ff d5 	movl   $0xea6d52d5,-0xc3c(%rbp)
    d339:	52 6d ea 
    d33c:	c7 85 c8 f3 ff ff 01 	movl   $0x1,-0xc38(%rbp)
    d343:	00 00 00 
    d346:	c7 85 cc f3 ff ff 00 	movl   $0x0,-0xc34(%rbp)
    d34d:	00 00 00 
    d350:	c7 85 d0 f3 ff ff e2 	movl   $0x256899e2,-0xc30(%rbp)
    d357:	99 68 25 
    d35a:	c6 85 40 ef ff ff 3f 	movb   $0x3f,-0x10c0(%rbp)
    d361:	c7 85 98 ef ff ff c6 	movl   $0x8d75c6,-0x1068(%rbp)
    d368:	75 8d 00 
    d36b:	c6 85 41 ef ff ff 03 	movb   $0x3,-0x10bf(%rbp)
    d372:	c7 85 80 ef ff ff 00 	movl   $0x0,-0x1080(%rbp)
    d379:	00 00 00 
    d37c:	eb 1e                	jmp    d39c <func_40+0x366>
    d37e:	8b 85 80 ef ff ff    	mov    -0x1080(%rbp),%eax
    d384:	48 98                	cltq   
    d386:	48 8d 15 63 b0 01 00 	lea    0x1b063(%rip),%rdx        # 283f0 <g_2869>
    d38d:	48 89 94 c5 b0 f1 ff 	mov    %rdx,-0xe50(%rbp,%rax,8)
    d394:	ff 
    d395:	83 85 80 ef ff ff 01 	addl   $0x1,-0x1080(%rbp)
    d39c:	83 bd 80 ef ff ff 09 	cmpl   $0x9,-0x1080(%rbp)
    d3a3:	7e d9                	jle    d37e <func_40+0x348>
    d3a5:	90                   	nop
    d3a6:	83 85 7c ef ff ff 01 	addl   $0x1,-0x1084(%rbp)
    d3ad:	48 c7 05 28 a0 01 00 	movq   $0x0,0x1a028(%rip)        # 273e0 <g_549>
    d3b4:	00 00 00 00 
    d3b8:	e9 75 22 00 00       	jmp    f632 <func_40+0x25fc>
    d3bd:	66 c7 85 46 ef ff ff 	movw   $0xffff,-0x10ba(%rbp)
    d3c4:	ff ff 
    d3c6:	48 8d 85 40 fb ff ff 	lea    -0x4c0(%rbp),%rax
    d3cd:	48 8d 15 2c d7 01 00 	lea    0x1d72c(%rip),%rdx        # 2ab00 <g_4180+0x3b8>
    d3d4:	b9 90 00 00 00       	mov    $0x90,%ecx
    d3d9:	48 89 c7             	mov    %rax,%rdi
    d3dc:	48 89 d6             	mov    %rdx,%rsi
    d3df:	f3 48 a5             	rep movsq %ds:(%rsi),%es:(%rdi)
    d3e2:	48 8d 85 40 fb ff ff 	lea    -0x4c0(%rbp),%rax
    d3e9:	48 05 00 03 00 00    	add    $0x300,%rax
    d3ef:	48 89 85 28 f0 ff ff 	mov    %rax,-0xfd8(%rbp)
    d3f6:	c7 85 54 ef ff ff 2b 	movl   $0x858f382b,-0x10ac(%rbp)
    d3fd:	38 8f 85 
    d400:	48 8d 05 c9 13 02 00 	lea    0x213c9(%rip),%rax        # 2e7d0 <g_2677+0x10>
    d407:	48 89 85 30 f0 ff ff 	mov    %rax,-0xfd0(%rbp)
    d40e:	c6 85 3e ef ff ff 1d 	movb   $0x1d,-0x10c2(%rbp)
    d415:	c7 85 58 ef ff ff 36 	movl   $0xce559036,-0x10a8(%rbp)
    d41c:	90 55 ce 
    d41f:	c7 85 5c ef ff ff f7 	movl   $0xfffffff7,-0x10a4(%rbp)
    d426:	ff ff ff 
    d429:	c7 85 60 ef ff ff fe 	movl   $0xfffffffe,-0x10a0(%rbp)
    d430:	ff ff ff 
    d433:	48 8d 85 e0 f3 ff ff 	lea    -0xc20(%rbp),%rax
    d43a:	48 8d 15 7f 42 01 00 	lea    0x1427f(%rip),%rdx        # 216c0 <g_4123+0x550>
    d441:	b9 23 00 00 00       	mov    $0x23,%ecx
    d446:	48 89 c7             	mov    %rax,%rdi
    d449:	48 89 d6             	mov    %rdx,%rsi
    d44c:	f3 48 a5             	rep movsq %ds:(%rsi),%es:(%rdi)
    d44f:	48 8d 05 92 f3 01 00 	lea    0x1f392(%rip),%rax        # 2c7e8 <g_133>
    d456:	48 89 85 38 f0 ff ff 	mov    %rax,-0xfc8(%rbp)
    d45d:	c7 85 9c ef ff ff 26 	movl   $0xa2a5c126,-0x1064(%rbp)
    d464:	c1 a5 a2 
    d467:	48 8d 05 12 f4 01 00 	lea    0x1f412(%rip),%rax        # 2c880 <g_577>
    d46e:	48 89 85 40 f0 ff ff 	mov    %rax,-0xfc0(%rbp)
    d475:	c7 85 a0 ef ff ff fe 	movl   $0xfffffffe,-0x1060(%rbp)
    d47c:	ff ff ff 
    d47f:	48 b8 86 e3 68 47 f3 	movabs $0x506b92f34768e386,%rax
    d486:	92 6b 50 
    d489:	48 89 85 48 f0 ff ff 	mov    %rax,-0xfb8(%rbp)
    d490:	48 c7 85 10 f0 ff ff 	movq   $0x4,-0xff0(%rbp)
    d497:	04 00 00 00 
    d49b:	48 8d 15 5e f3 01 00 	lea    0x1f35e(%rip),%rdx        # 2c800 <g_143>
    d4a2:	48 8b 85 28 ef ff ff 	mov    -0x10d8(%rbp),%rax
    d4a9:	48 89 02             	mov    %rax,(%rdx)
    d4ac:	c6 05 14 9f 01 00 00 	movb   $0x0,0x19f14(%rip)        # 273c7 <g_452+0x17>
    d4b3:	e9 59 21 00 00       	jmp    f611 <func_40+0x25db>
    d4b8:	c6 85 42 ef ff ff 00 	movb   $0x0,-0x10be(%rbp)
    d4bf:	48 8d 05 96 9b 01 00 	lea    0x19b96(%rip),%rax        # 2705c <g_78>
    d4c6:	48 89 85 50 f0 ff ff 	mov    %rax,-0xfb0(%rbp)
    d4cd:	c6 85 3f ef ff ff 38 	movb   $0x38,-0x10c1(%rbp)
    d4d4:	48 8d 05 5c 9f 01 00 	lea    0x19f5c(%rip),%rax        # 27437 <g_585+0x17>
    d4db:	48 89 85 58 f0 ff ff 	mov    %rax,-0xfa8(%rbp)
    d4e2:	48 8d 85 90 f6 ff ff 	lea    -0x970(%rbp),%rax
    d4e9:	48 8d 15 90 da 01 00 	lea    0x1da90(%rip),%rdx        # 2af80 <g_4180+0x838>
    d4f0:	b9 3c 00 00 00       	mov    $0x3c,%ecx
    d4f5:	48 89 c7             	mov    %rax,%rdi
    d4f8:	48 89 d6             	mov    %rdx,%rsi
    d4fb:	f3 48 a5             	rep movsq %ds:(%rsi),%es:(%rdi)
    d4fe:	48 8d 85 90 f6 ff ff 	lea    -0x970(%rbp),%rax
    d505:	48 83 c0 38          	add    $0x38,%rax
    d509:	48 89 85 60 f0 ff ff 	mov    %rax,-0xfa0(%rbp)
    d510:	c7 85 64 ef ff ff aa 	movl   $0xb4c5c7aa,-0x109c(%rbp)
    d517:	c7 c5 b4 
    d51a:	48 c7 85 68 f0 ff ff 	movq   $0x0,-0xf98(%rbp)
    d521:	00 00 00 00 
    d525:	48 c7 85 70 f0 ff ff 	movq   $0x0,-0xf90(%rbp)
    d52c:	00 00 00 00 
    d530:	48 8d 05 e9 f2 01 00 	lea    0x1f2e9(%rip),%rax        # 2c820 <g_206>
    d537:	48 89 85 78 f0 ff ff 	mov    %rax,-0xf88(%rbp)
    d53e:	c7 85 a4 ef ff ff ff 	movl   $0xffffffff,-0x105c(%rbp)
    d545:	ff ff ff 
    d548:	c7 85 68 ef ff ff fb 	movl   $0xfffffffb,-0x1098(%rbp)
    d54f:	ff ff ff 
    d552:	c7 85 a8 ef ff ff 01 	movl   $0x1,-0x1058(%rbp)
    d559:	00 00 00 
    d55c:	c7 85 6c ef ff ff ff 	movl   $0xffffffff,-0x1094(%rbp)
    d563:	ff ff ff 
    d566:	c7 85 ac ef ff ff be 	movl   $0x99b6edbe,-0x1054(%rbp)
    d56d:	ed b6 99 
    d570:	c7 85 b0 ef ff ff 41 	movl   $0xd0d58f41,-0x1050(%rbp)
    d577:	8f d5 d0 
    d57a:	c7 85 70 ef ff ff 01 	movl   $0x1,-0x1090(%rbp)
    d581:	00 00 00 
    d584:	c7 85 74 ef ff ff 01 	movl   $0x1,-0x108c(%rbp)
    d58b:	00 00 00 
    d58e:	c7 85 78 ef ff ff 55 	movl   $0x8342e555,-0x1088(%rbp)
    d595:	e5 42 83 
    d598:	c7 85 84 ef ff ff 15 	movl   $0x102fad15,-0x107c(%rbp)
    d59f:	ad 2f 10 
    d5a2:	48 8d 05 9f 9b 01 00 	lea    0x19b9f(%rip),%rax        # 27148 <g_176>
    d5a9:	48 89 85 80 f0 ff ff 	mov    %rax,-0xf80(%rbp)
    d5b0:	c7 85 88 ef ff ff 00 	movl   $0x0,-0x1078(%rbp)
    d5b7:	00 00 00 
    d5ba:	eb 19                	jmp    d5d5 <func_40+0x59f>
    d5bc:	8b 85 88 ef ff ff    	mov    -0x1078(%rbp),%eax
    d5c2:	48 98                	cltq   
    d5c4:	66 c7 84 45 50 f1 ff 	movw   $0x0,-0xeb0(%rbp,%rax,2)
    d5cb:	ff 00 00 
    d5ce:	83 85 88 ef ff ff 01 	addl   $0x1,-0x1078(%rbp)
    d5d5:	83 bd 88 ef ff ff 01 	cmpl   $0x1,-0x1078(%rbp)
    d5dc:	7e de                	jle    d5bc <func_40+0x586>
    d5de:	0f b6 95 42 ef ff ff 	movzbl -0x10be(%rbp),%edx
    d5e5:	0f b6 05 db 9d 01 00 	movzbl 0x19ddb(%rip),%eax        # 273c7 <g_452+0x17>
    d5ec:	0f be c0             	movsbl %al,%eax
    d5ef:	8d 48 02             	lea    0x2(%rax),%ecx
    d5f2:	48 8b 05 e7 9d 01 00 	mov    0x19de7(%rip),%rax        # 273e0 <g_549>
    d5f9:	48 8d 70 07          	lea    0x7(%rax),%rsi
    d5fd:	48 63 c9             	movslq %ecx,%rcx
    d600:	48 89 c8             	mov    %rcx,%rax
    d603:	48 c1 e0 02          	shl    $0x2,%rax
    d607:	48 01 c8             	add    %rcx,%rax
    d60a:	48 01 c0             	add    %rax,%rax
    d60d:	48 01 f0             	add    %rsi,%rax
    d610:	48 8d 0c c5 00 00 00 	lea    0x0(,%rax,8),%rcx
    d617:	00 
    d618:	48 8d 05 c1 a7 01 00 	lea    0x1a7c1(%rip),%rax        # 27de0 <g_1744>
    d61f:	48 8b 04 01          	mov    (%rcx,%rax,1),%rax
    d623:	48 8b 1d 16 f2 01 00 	mov    0x1f216(%rip),%rbx        # 2c840 <g_331>
    d62a:	89 d6                	mov    %edx,%esi
    d62c:	89 c7                	mov    %eax,%edi
    d62e:	e8 98 d0 ff ff       	call   a6cb <safe_mod_func_int32_t_s_s>
    d633:	89 03                	mov    %eax,(%rbx)
    d635:	0f b6 95 42 ef ff ff 	movzbl -0x10be(%rbp),%edx
    d63c:	8b 85 50 ef ff ff    	mov    -0x10b0(%rbp),%eax
    d642:	21 d0                	and    %edx,%eax
    d644:	89 85 50 ef ff ff    	mov    %eax,-0x10b0(%rbp)
    d64a:	66 c7 85 4a ef ff ff 	movw   $0x43d1,-0x10b6(%rbp)
    d651:	d1 43 
    d653:	48 8d 05 ee 9a 01 00 	lea    0x19aee(%rip),%rax        # 27148 <g_176>
    d65a:	48 89 85 70 f8 ff ff 	mov    %rax,-0x790(%rbp)
    d661:	48 8d 05 4c 9c 01 00 	lea    0x19c4c(%rip),%rax        # 272b4 <g_334+0x114>
    d668:	48 89 85 78 f8 ff ff 	mov    %rax,-0x788(%rbp)
    d66f:	48 8d 05 d2 9a 01 00 	lea    0x19ad2(%rip),%rax        # 27148 <g_176>
    d676:	48 89 85 80 f8 ff ff 	mov    %rax,-0x780(%rbp)
    d67d:	48 8d 05 30 9c 01 00 	lea    0x19c30(%rip),%rax        # 272b4 <g_334+0x114>
    d684:	48 89 85 88 f8 ff ff 	mov    %rax,-0x778(%rbp)
    d68b:	48 8d 05 b6 9a 01 00 	lea    0x19ab6(%rip),%rax        # 27148 <g_176>
    d692:	48 89 85 90 f8 ff ff 	mov    %rax,-0x770(%rbp)
    d699:	48 8d 05 a8 9a 01 00 	lea    0x19aa8(%rip),%rax        # 27148 <g_176>
    d6a0:	48 89 85 98 f8 ff ff 	mov    %rax,-0x768(%rbp)
    d6a7:	48 8d 05 06 9c 01 00 	lea    0x19c06(%rip),%rax        # 272b4 <g_334+0x114>
    d6ae:	48 89 85 a0 f8 ff ff 	mov    %rax,-0x760(%rbp)
    d6b5:	48 8d 05 8c 9a 01 00 	lea    0x19a8c(%rip),%rax        # 27148 <g_176>
    d6bc:	48 89 85 a8 f8 ff ff 	mov    %rax,-0x758(%rbp)
    d6c3:	48 8d 05 8e 99 01 00 	lea    0x1998e(%rip),%rax        # 27058 <g_70>
    d6ca:	48 89 85 b0 f8 ff ff 	mov    %rax,-0x750(%rbp)
    d6d1:	48 8d 05 70 9a 01 00 	lea    0x19a70(%rip),%rax        # 27148 <g_176>
    d6d8:	48 89 85 b8 f8 ff ff 	mov    %rax,-0x748(%rbp)
    d6df:	48 8d 05 76 99 01 00 	lea    0x19976(%rip),%rax        # 2705c <g_78>
    d6e6:	48 89 85 c0 f8 ff ff 	mov    %rax,-0x740(%rbp)
    d6ed:	48 8d 05 68 99 01 00 	lea    0x19968(%rip),%rax        # 2705c <g_78>
    d6f4:	48 89 85 c8 f8 ff ff 	mov    %rax,-0x738(%rbp)
    d6fb:	48 8d 05 46 9a 01 00 	lea    0x19a46(%rip),%rax        # 27148 <g_176>
    d702:	48 89 85 d0 f8 ff ff 	mov    %rax,-0x730(%rbp)
    d709:	48 8d 05 48 99 01 00 	lea    0x19948(%rip),%rax        # 27058 <g_70>
    d710:	48 89 85 d8 f8 ff ff 	mov    %rax,-0x728(%rbp)
    d717:	48 8d 05 96 9b 01 00 	lea    0x19b96(%rip),%rax        # 272b4 <g_334+0x114>
    d71e:	48 89 85 e0 f8 ff ff 	mov    %rax,-0x720(%rbp)
    d725:	48 8d 05 b8 9b 01 00 	lea    0x19bb8(%rip),%rax        # 272e4 <g_334+0x144>
    d72c:	48 89 85 e8 f8 ff ff 	mov    %rax,-0x718(%rbp)
    d733:	48 8d 05 0e 9a 01 00 	lea    0x19a0e(%rip),%rax        # 27148 <g_176>
    d73a:	48 89 85 f0 f8 ff ff 	mov    %rax,-0x710(%rbp)
    d741:	48 8d 05 00 9a 01 00 	lea    0x19a00(%rip),%rax        # 27148 <g_176>
    d748:	48 89 85 f8 f8 ff ff 	mov    %rax,-0x708(%rbp)
    d74f:	48 8d 05 8e 9b 01 00 	lea    0x19b8e(%rip),%rax        # 272e4 <g_334+0x144>
    d756:	48 89 85 00 f9 ff ff 	mov    %rax,-0x700(%rbp)
    d75d:	48 8d 05 50 9b 01 00 	lea    0x19b50(%rip),%rax        # 272b4 <g_334+0x114>
    d764:	48 89 85 08 f9 ff ff 	mov    %rax,-0x6f8(%rbp)
    d76b:	48 8d 05 72 9b 01 00 	lea    0x19b72(%rip),%rax        # 272e4 <g_334+0x144>
    d772:	48 89 85 10 f9 ff ff 	mov    %rax,-0x6f0(%rbp)
    d779:	48 8d 05 c8 99 01 00 	lea    0x199c8(%rip),%rax        # 27148 <g_176>
    d780:	48 89 85 18 f9 ff ff 	mov    %rax,-0x6e8(%rbp)
    d787:	48 8d 05 ce 98 01 00 	lea    0x198ce(%rip),%rax        # 2705c <g_78>
    d78e:	48 89 85 20 f9 ff ff 	mov    %rax,-0x6e0(%rbp)
    d795:	48 8d 05 c0 98 01 00 	lea    0x198c0(%rip),%rax        # 2705c <g_78>
    d79c:	48 89 85 28 f9 ff ff 	mov    %rax,-0x6d8(%rbp)
    d7a3:	48 8d 05 9e 99 01 00 	lea    0x1999e(%rip),%rax        # 27148 <g_176>
    d7aa:	48 89 85 30 f9 ff ff 	mov    %rax,-0x6d0(%rbp)
    d7b1:	48 8d 05 a0 98 01 00 	lea    0x198a0(%rip),%rax        # 27058 <g_70>
    d7b8:	48 89 85 38 f9 ff ff 	mov    %rax,-0x6c8(%rbp)
    d7bf:	48 8d 05 82 99 01 00 	lea    0x19982(%rip),%rax        # 27148 <g_176>
    d7c6:	48 89 85 40 f9 ff ff 	mov    %rax,-0x6c0(%rbp)
    d7cd:	48 8d 05 88 98 01 00 	lea    0x19888(%rip),%rax        # 2705c <g_78>
    d7d4:	48 89 85 48 f9 ff ff 	mov    %rax,-0x6b8(%rbp)
    d7db:	48 8d 05 66 99 01 00 	lea    0x19966(%rip),%rax        # 27148 <g_176>
    d7e2:	48 89 85 50 f9 ff ff 	mov    %rax,-0x6b0(%rbp)
    d7e9:	48 8d 05 58 99 01 00 	lea    0x19958(%rip),%rax        # 27148 <g_176>
    d7f0:	48 89 85 58 f9 ff ff 	mov    %rax,-0x6a8(%rbp)
    d7f7:	48 8d 05 b6 9a 01 00 	lea    0x19ab6(%rip),%rax        # 272b4 <g_334+0x114>
    d7fe:	48 89 85 60 f9 ff ff 	mov    %rax,-0x6a0(%rbp)
    d805:	48 8d 05 3c 99 01 00 	lea    0x1993c(%rip),%rax        # 27148 <g_176>
    d80c:	48 89 85 68 f9 ff ff 	mov    %rax,-0x698(%rbp)
    d813:	48 8d 05 9a 9a 01 00 	lea    0x19a9a(%rip),%rax        # 272b4 <g_334+0x114>
    d81a:	48 89 85 70 f9 ff ff 	mov    %rax,-0x690(%rbp)
    d821:	48 8d 05 20 99 01 00 	lea    0x19920(%rip),%rax        # 27148 <g_176>
    d828:	48 89 85 78 f9 ff ff 	mov    %rax,-0x688(%rbp)
    d82f:	48 8d 05 12 99 01 00 	lea    0x19912(%rip),%rax        # 27148 <g_176>
    d836:	48 89 85 80 f9 ff ff 	mov    %rax,-0x680(%rbp)
    d83d:	48 8d 85 50 ef ff ff 	lea    -0x10b0(%rbp),%rax
    d844:	48 89 85 88 f9 ff ff 	mov    %rax,-0x678(%rbp)
    d84b:	48 8d 05 0a 98 01 00 	lea    0x1980a(%rip),%rax        # 2705c <g_78>
    d852:	48 89 85 90 f9 ff ff 	mov    %rax,-0x670(%rbp)
    d859:	48 c7 85 98 f9 ff ff 	movq   $0x0,-0x668(%rbp)
    d860:	00 00 00 00 
    d864:	48 8d 05 f1 97 01 00 	lea    0x197f1(%rip),%rax        # 2705c <g_78>
    d86b:	48 89 85 a0 f9 ff ff 	mov    %rax,-0x660(%rbp)
    d872:	48 8d 85 50 ef ff ff 	lea    -0x10b0(%rbp),%rax
    d879:	48 89 85 a8 f9 ff ff 	mov    %rax,-0x658(%rbp)
    d880:	48 8d 85 50 ef ff ff 	lea    -0x10b0(%rbp),%rax
    d887:	48 89 85 b0 f9 ff ff 	mov    %rax,-0x650(%rbp)
    d88e:	48 8d 05 c7 97 01 00 	lea    0x197c7(%rip),%rax        # 2705c <g_78>
    d895:	48 89 85 b8 f9 ff ff 	mov    %rax,-0x648(%rbp)
    d89c:	66 83 85 46 ef ff ff 	addw   $0x1,-0x10ba(%rbp)
    d8a3:	01 
    d8a4:	48 8b 05 95 ef 01 00 	mov    0x1ef95(%rip),%rax        # 2c840 <g_331>
    d8ab:	8b 00                	mov    (%rax),%eax
    d8ad:	85 c0                	test   %eax,%eax
    d8af:	0f 84 4a 06 00 00    	je     deff <func_40+0xec9>
    d8b5:	48 8d 05 94 9b 01 00 	lea    0x19b94(%rip),%rax        # 27450 <g_983>
    d8bc:	48 89 85 90 f0 ff ff 	mov    %rax,-0xf70(%rbp)
    d8c3:	48 b8 5e e5 42 c2 5c 	movabs $0xacad7c5cc242e55e,%rax
    d8ca:	7c ad ac 
    d8cd:	48 89 85 98 f0 ff ff 	mov    %rax,-0xf68(%rbp)
    d8d4:	c7 85 8c ef ff ff 00 	movl   $0x0,-0x1074(%rbp)
    d8db:	00 00 00 
    d8de:	eb 1b                	jmp    d8fb <func_40+0x8c5>
    d8e0:	8b 85 8c ef ff ff    	mov    -0x1074(%rbp),%eax
    d8e6:	48 98                	cltq   
    d8e8:	48 c7 84 c5 70 f8 ff 	movq   $0x1,-0x790(%rbp,%rax,8)
    d8ef:	ff 01 00 00 00 
    d8f4:	83 85 8c ef ff ff 01 	addl   $0x1,-0x1074(%rbp)
    d8fb:	83 bd 8c ef ff ff 08 	cmpl   $0x8,-0x1074(%rbp)
    d902:	7e dc                	jle    d8e0 <func_40+0x8aa>
    d904:	c7 85 8c ef ff ff 00 	movl   $0x0,-0x1074(%rbp)
    d90b:	00 00 00 
    d90e:	eb 1e                	jmp    d92e <func_40+0x8f8>
    d910:	8b 85 8c ef ff ff    	mov    -0x1074(%rbp),%eax
    d916:	48 98                	cltq   
    d918:	48 8d 15 a8 9a 01 00 	lea    0x19aa8(%rip),%rdx        # 273c7 <g_452+0x17>
    d91f:	48 89 94 c5 50 f2 ff 	mov    %rdx,-0xdb0(%rbp,%rax,8)
    d926:	ff 
    d927:	83 85 8c ef ff ff 01 	addl   $0x1,-0x1074(%rbp)
    d92e:	83 bd 8c ef ff ff 00 	cmpl   $0x0,-0x1074(%rbp)
    d935:	7e d9                	jle    d910 <func_40+0x8da>
    d937:	c6 05 f9 9a 01 00 00 	movb   $0x0,0x19af9(%rip)        # 27437 <g_585+0x17>
    d93e:	e9 91 01 00 00       	jmp    dad4 <func_40+0xa9e>
    d943:	48 8b 85 28 f0 ff ff 	mov    -0xfd8(%rbp),%rax
    d94a:	48 89 05 d7 fb 01 00 	mov    %rax,0x1fbd7(%rip)        # 2d528 <g_2820+0xa8>
    d951:	48 8b 15 d0 fb 01 00 	mov    0x1fbd0(%rip),%rdx        # 2d528 <g_2820+0xa8>
    d958:	48 8b 05 91 f0 01 00 	mov    0x1f091(%rip),%rax        # 2c9f0 <g_2347>
    d95f:	48 8b 00             	mov    (%rax),%rax
    d962:	48 39 c2             	cmp    %rax,%rdx
    d965:	0f 94 c0             	sete   %al
    d968:	44 0f b6 f0          	movzbl %al,%r14d
    d96c:	0f b6 9d 42 ef ff ff 	movzbl -0x10be(%rbp),%ebx
    d973:	48 8b 05 66 9a 01 00 	mov    0x19a66(%rip),%rax        # 273e0 <g_549>
    d97a:	48 8d 50 01          	lea    0x1(%rax),%rdx
    d97e:	0f b6 05 b2 9a 01 00 	movzbl 0x19ab2(%rip),%eax        # 27437 <g_585+0x17>
    d985:	0f be c0             	movsbl %al,%eax
    d988:	8d 48 01             	lea    0x1(%rax),%ecx
    d98b:	0f b6 05 35 9a 01 00 	movzbl 0x19a35(%rip),%eax        # 273c7 <g_452+0x17>
    d992:	0f be c0             	movsbl %al,%eax
    d995:	48 63 f0             	movslq %eax,%rsi
    d998:	48 63 c9             	movslq %ecx,%rcx
    d99b:	48 89 d0             	mov    %rdx,%rax
    d99e:	48 c1 e0 02          	shl    $0x2,%rax
    d9a2:	48 01 d0             	add    %rdx,%rax
    d9a5:	48 01 c0             	add    %rax,%rax
    d9a8:	48 01 c8             	add    %rcx,%rax
    d9ab:	48 01 c0             	add    %rax,%rax
    d9ae:	48 01 f0             	add    %rsi,%rax
    d9b1:	48 8d 14 85 00 00 00 	lea    0x0(,%rax,4),%rdx
    d9b8:	00 
    d9b9:	48 8d 05 e0 97 01 00 	lea    0x197e0(%rip),%rax        # 271a0 <g_334>
    d9c0:	8b 14 02             	mov    (%rdx,%rax,1),%edx
    d9c3:	48 8b 05 56 ef 01 00 	mov    0x1ef56(%rip),%rax        # 2c920 <g_889>
    d9ca:	48 8b 00             	mov    (%rax),%rax
    d9cd:	48 8b 00             	mov    (%rax),%rax
    d9d0:	66 89 10             	mov    %dx,(%rax)
    d9d3:	0f b7 00             	movzwl (%rax),%eax
    d9d6:	4c 0f bf f8          	movswq %ax,%r15
    d9da:	44 0f b6 a5 42 ef ff 	movzbl -0x10be(%rbp),%r12d
    d9e1:	ff 
    d9e2:	0f b7 85 46 ef ff ff 	movzwl -0x10ba(%rbp),%eax
    d9e9:	0f b6 c0             	movzbl %al,%eax
    d9ec:	89 c6                	mov    %eax,%esi
    d9ee:	bf ff 00 00 00       	mov    $0xff,%edi
    d9f3:	e8 61 d1 ff ff       	call   ab59 <safe_add_func_uint8_t_u_u>
    d9f8:	44 0f b6 e8          	movzbl %al,%r13d
    d9fc:	48 8b 05 bd ed 01 00 	mov    0x1edbd(%rip),%rax        # 2c7c0 <g_77>
    da03:	8b 00                	mov    (%rax),%eax
    da05:	be b4 c8 e7 fb       	mov    $0xfbe7c8b4,%esi
    da0a:	89 c7                	mov    %eax,%edi
    da0c:	e8 f3 cb ff ff       	call   a604 <safe_sub_func_int32_t_s_s>
    da11:	48 98                	cltq   
    da13:	4c 89 ee             	mov    %r13,%rsi
    da16:	48 89 c7             	mov    %rax,%rdi
    da19:	e8 0f d6 ff ff       	call   b02d <safe_add_func_uint64_t_u_u>
    da1e:	48 3d 99 0c 00 00    	cmp    $0xc99,%rax
    da24:	0f 96 c0             	setbe  %al
    da27:	0f b6 c0             	movzbl %al,%eax
    da2a:	48 89 c6             	mov    %rax,%rsi
    da2d:	48 c7 c7 ff ff ff ff 	mov    $0xffffffffffffffff,%rdi
    da34:	e8 6e ce ff ff       	call   a8a7 <safe_sub_func_int64_t_s_s>
    da39:	4c 89 e6             	mov    %r12,%rsi
    da3c:	48 89 c7             	mov    %rax,%rdi
    da3f:	e8 fc cd ff ff       	call   a840 <safe_add_func_int64_t_s_s>
    da44:	49 39 c7             	cmp    %rax,%r15
    da47:	0f 9d c0             	setge  %al
    da4a:	0f b6 d0             	movzbl %al,%edx
    da4d:	48 8b 85 78 f8 ff ff 	mov    -0x788(%rbp),%rax
    da54:	48 39 c2             	cmp    %rax,%rdx
    da57:	0f 94 c0             	sete   %al
    da5a:	0f b6 c0             	movzbl %al,%eax
    da5d:	89 de                	mov    %ebx,%esi
    da5f:	89 c7                	mov    %eax,%edi
    da61:	e8 74 d1 ff ff       	call   abda <safe_div_func_uint8_t_u_u>
    da66:	0f b6 c0             	movzbl %al,%eax
    da69:	41 39 c6             	cmp    %eax,%r14d
    da6c:	0f 9e c0             	setle  %al
    da6f:	0f b6 d0             	movzbl %al,%edx
    da72:	48 8b 85 a8 f8 ff ff 	mov    -0x758(%rbp),%rax
    da79:	89 d1                	mov    %edx,%ecx
    da7b:	21 c1                	and    %eax,%ecx
    da7d:	48 8b 05 5c 99 01 00 	mov    0x1995c(%rip),%rax        # 273e0 <g_549>
    da84:	48 8d 50 02          	lea    0x2(%rax),%rdx
    da88:	0f b6 05 a8 99 01 00 	movzbl 0x199a8(%rip),%eax        # 27437 <g_585+0x17>
    da8f:	0f be c0             	movsbl %al,%eax
    da92:	48 8b 35 47 99 01 00 	mov    0x19947(%rip),%rsi        # 273e0 <g_549>
    da99:	48 63 f8             	movslq %eax,%rdi
    da9c:	48 89 d0             	mov    %rdx,%rax
    da9f:	48 c1 e0 02          	shl    $0x2,%rax
    daa3:	48 01 d0             	add    %rdx,%rax
    daa6:	48 01 c0             	add    %rax,%rax
    daa9:	48 01 f8             	add    %rdi,%rax
    daac:	48 01 c0             	add    %rax,%rax
    daaf:	48 01 f0             	add    %rsi,%rax
    dab2:	48 8d 14 85 00 00 00 	lea    0x0(,%rax,4),%rdx
    dab9:	00 
    daba:	48 8d 05 df 96 01 00 	lea    0x196df(%rip),%rax        # 271a0 <g_334>
    dac1:	89 0c 02             	mov    %ecx,(%rdx,%rax,1)
    dac4:	0f b6 05 6c 99 01 00 	movzbl 0x1996c(%rip),%eax        # 27437 <g_585+0x17>
    dacb:	83 c0 01             	add    $0x1,%eax
    dace:	88 05 63 99 01 00    	mov    %al,0x19963(%rip)        # 27437 <g_585+0x17>
    dad4:	0f b6 05 5c 99 01 00 	movzbl 0x1995c(%rip),%eax        # 27437 <g_585+0x17>
    dadb:	3c 07                	cmp    $0x7,%al
    dadd:	0f 8e 60 fe ff ff    	jle    d943 <func_40+0x90d>
    dae3:	48 8d 15 16 ed 01 00 	lea    0x1ed16(%rip),%rdx        # 2c800 <g_143>
    daea:	48 8b 85 50 f0 ff ff 	mov    -0xfb0(%rbp),%rax
    daf1:	48 89 02             	mov    %rax,(%rdx)
    daf4:	66 83 bd 46 ef ff ff 	cmpw   $0x0,-0x10ba(%rbp)
    dafb:	00 
    dafc:	0f 85 f7 1a 00 00    	jne    f5f9 <func_40+0x25c3>
    db02:	0f b7 85 46 ef ff ff 	movzwl -0x10ba(%rbp),%eax
    db09:	0f bf d8             	movswl %ax,%ebx
    db0c:	44 0f b7 a5 46 ef ff 	movzwl -0x10ba(%rbp),%r12d
    db13:	ff 
    db14:	48 8b 05 05 ed 01 00 	mov    0x1ed05(%rip),%rax        # 2c820 <g_206>
    db1b:	0f b6 00             	movzbl (%rax),%eax
    db1e:	44 0f b6 e8          	movzbl %al,%r13d
    db22:	48 8b 85 70 f8 ff ff 	mov    -0x790(%rbp),%rax
    db29:	0f bf d0             	movswl %ax,%edx
    db2c:	0f b7 85 46 ef ff ff 	movzwl -0x10ba(%rbp),%eax
    db33:	98                   	cwtl   
    db34:	89 d6                	mov    %edx,%esi
    db36:	89 c7                	mov    %eax,%edi
    db38:	e8 97 c8 ff ff       	call   a3d4 <safe_sub_func_int16_t_s_s>
    db3d:	66 85 c0             	test   %ax,%ax
    db40:	75 0a                	jne    db4c <func_40+0xb16>
    db42:	8b 85 50 ef ff ff    	mov    -0x10b0(%rbp),%eax
    db48:	85 c0                	test   %eax,%eax
    db4a:	74 2e                	je     db7a <func_40+0xb44>
    db4c:	0f b7 85 46 ef ff ff 	movzwl -0x10ba(%rbp),%eax
    db53:	89 c6                	mov    %eax,%esi
    db55:	bf ff ff 00 00       	mov    $0xffff,%edi
    db5a:	e8 bf d1 ff ff       	call   ad1e <safe_sub_func_uint16_t_u_u>
    db5f:	48 8b 05 ba ec 01 00 	mov    0x1ecba(%rip),%rax        # 2c820 <g_206>
    db66:	0f b6 00             	movzbl (%rax),%eax
    db69:	84 c0                	test   %al,%al
    db6b:	0f 94 c0             	sete   %al
    db6e:	0f b6 d0             	movzbl %al,%edx
    db71:	0f b7 85 46 ef ff ff 	movzwl -0x10ba(%rbp),%eax
    db78:	39 c2                	cmp    %eax,%edx
    db7a:	0f b7 85 50 f1 ff ff 	movzwl -0xeb0(%rbp),%eax
    db81:	89 c2                	mov    %eax,%edx
    db83:	48 8b 85 50 f0 ff ff 	mov    -0xfb0(%rbp),%rax
    db8a:	8b 00                	mov    (%rax),%eax
    db8c:	21 c2                	and    %eax,%edx
    db8e:	0f b7 85 46 ef ff ff 	movzwl -0x10ba(%rbp),%eax
    db95:	21 d0                	and    %edx,%eax
    db97:	0f b6 c0             	movzbl %al,%eax
    db9a:	44 89 ee             	mov    %r13d,%esi
    db9d:	89 c7                	mov    %eax,%edi
    db9f:	e8 ee cf ff ff       	call   ab92 <safe_mul_func_uint8_t_u_u>
    dba4:	0f b6 d0             	movzbl %al,%edx
    dba7:	48 8b 85 50 f0 ff ff 	mov    -0xfb0(%rbp),%rax
    dbae:	8b 00                	mov    (%rax),%eax
    dbb0:	31 d0                	xor    %edx,%eax
    dbb2:	f7 d0                	not    %eax
    dbb4:	89 c2                	mov    %eax,%edx
    dbb6:	48 8b 85 50 f0 ff ff 	mov    -0xfb0(%rbp),%rax
    dbbd:	8b 00                	mov    (%rax),%eax
    dbbf:	21 d0                	and    %edx,%eax
    dbc1:	83 f8 01             	cmp    $0x1,%eax
    dbc4:	0f 9f c0             	setg   %al
    dbc7:	0f b6 d0             	movzbl %al,%edx
    dbca:	0f b7 85 46 ef ff ff 	movzwl -0x10ba(%rbp),%eax
    dbd1:	31 d0                	xor    %edx,%eax
    dbd3:	0f b7 c0             	movzwl %ax,%eax
    dbd6:	44 89 e6             	mov    %r12d,%esi
    dbd9:	89 c7                	mov    %eax,%edi
    dbdb:	e8 dd d1 ff ff       	call   adbd <safe_lshift_func_uint16_t_u_s>
    dbe0:	0f bf d0             	movswl %ax,%edx
    dbe3:	0f b7 85 46 ef ff ff 	movzwl -0x10ba(%rbp),%eax
    dbea:	98                   	cwtl   
    dbeb:	89 d6                	mov    %edx,%esi
    dbed:	89 c7                	mov    %eax,%edi
    dbef:	e8 e0 c7 ff ff       	call   a3d4 <safe_sub_func_int16_t_s_s>
    dbf4:	98                   	cwtl   
    dbf5:	89 de                	mov    %ebx,%esi
    dbf7:	89 c7                	mov    %eax,%edi
    dbf9:	e8 f6 c7 ff ff       	call   a3f4 <safe_mul_func_int16_t_s_s>
    dbfe:	0f bf d0             	movswl %ax,%edx
    dc01:	48 8b 05 50 ec 01 00 	mov    0x1ec50(%rip),%rax        # 2c858 <g_456>
    dc08:	48 8b 00             	mov    (%rax),%rax
    dc0b:	48 8b 00             	mov    (%rax),%rax
    dc0e:	8b 00                	mov    (%rax),%eax
    dc10:	39 c2                	cmp    %eax,%edx
    dc12:	0f 8f 92 02 00 00    	jg     deaa <func_40+0xe74>
    dc18:	c7 85 b8 ef ff ff 09 	movl   $0x8304ac09,-0x1048(%rbp)
    dc1f:	ac 04 83 
    dc22:	48 c7 05 83 a4 01 00 	movq   $0x0,0x1a483(%rip)        # 280b0 <g_2185>
    dc29:	00 00 00 00 
    dc2d:	e9 c6 01 00 00       	jmp    ddf8 <func_40+0xdc2>
    dc32:	48 8d 05 9f 94 01 00 	lea    0x1949f(%rip),%rax        # 270d8 <g_123+0x38>
    dc39:	48 89 85 08 f0 ff ff 	mov    %rax,-0xff8(%rbp)
    dc40:	48 8d 85 08 f0 ff ff 	lea    -0xff8(%rbp),%rax
    dc47:	48 89 85 a0 f0 ff ff 	mov    %rax,-0xf60(%rbp)
    dc4e:	48 8b 05 93 eb 01 00 	mov    0x1eb93(%rip),%rax        # 2c7e8 <g_133>
    dc55:	48 c7 00 00 00 00 00 	movq   $0x0,(%rax)
    dc5c:	48 8b 10             	mov    (%rax),%rdx
    dc5f:	48 8b 85 a0 f0 ff ff 	mov    -0xf60(%rbp),%rax
    dc66:	48 89 10             	mov    %rdx,(%rax)
    dc69:	48 8b 85 a0 f0 ff ff 	mov    -0xf60(%rbp),%rax
    dc70:	48 8b 00             	mov    (%rax),%rax
    dc73:	48 39 85 90 f0 ff ff 	cmp    %rax,-0xf70(%rbp)
    dc7a:	40 0f 94 c6          	sete   %sil
    dc7e:	48 8b 05 5b 97 01 00 	mov    0x1975b(%rip),%rax        # 273e0 <g_549>
    dc85:	48 8d 50 03          	lea    0x3(%rax),%rdx
    dc89:	0f b6 05 37 97 01 00 	movzbl 0x19737(%rip),%eax        # 273c7 <g_452+0x17>
    dc90:	0f be c0             	movsbl %al,%eax
    dc93:	8d 48 08             	lea    0x8(%rax),%ecx
    dc96:	4c 8b 05 43 97 01 00 	mov    0x19743(%rip),%r8        # 273e0 <g_549>
    dc9d:	40 0f b6 f6          	movzbl %sil,%esi
    dca1:	48 63 f9             	movslq %ecx,%rdi
    dca4:	48 89 d0             	mov    %rdx,%rax
    dca7:	48 c1 e0 02          	shl    $0x2,%rax
    dcab:	48 01 d0             	add    %rdx,%rax
    dcae:	48 01 c0             	add    %rax,%rax
    dcb1:	48 01 f8             	add    %rdi,%rax
    dcb4:	48 01 c0             	add    %rax,%rax
    dcb7:	4c 01 c0             	add    %r8,%rax
    dcba:	48 8d 3c 85 00 00 00 	lea    0x0(,%rax,4),%rdi
    dcc1:	00 
    dcc2:	48 8d 05 d7 94 01 00 	lea    0x194d7(%rip),%rax        # 271a0 <g_334>
    dcc9:	89 34 07             	mov    %esi,(%rdi,%rax,1)
    dccc:	48 63 c9             	movslq %ecx,%rcx
    dccf:	48 89 d0             	mov    %rdx,%rax
    dcd2:	48 c1 e0 02          	shl    $0x2,%rax
    dcd6:	48 01 d0             	add    %rdx,%rax
    dcd9:	48 01 c0             	add    %rax,%rax
    dcdc:	48 01 c8             	add    %rcx,%rax
    dcdf:	48 01 c0             	add    %rax,%rax
    dce2:	4c 01 c0             	add    %r8,%rax
    dce5:	48 8d 14 85 00 00 00 	lea    0x0(,%rax,4),%rdx
    dcec:	00 
    dced:	48 8d 05 ac 94 01 00 	lea    0x194ac(%rip),%rax        # 271a0 <g_334>
    dcf4:	8b 04 02             	mov    (%rdx,%rax,1),%eax
    dcf7:	be 69 25 67 7d       	mov    $0x7d672569,%esi
    dcfc:	89 c7                	mov    %eax,%edi
    dcfe:	e8 01 c9 ff ff       	call   a604 <safe_sub_func_int32_t_s_s>
    dd03:	89 85 50 ef ff ff    	mov    %eax,-0x10b0(%rbp)
    dd09:	8b 95 50 ef ff ff    	mov    -0x10b0(%rbp),%edx
    dd0f:	48 8b 05 0a ec 01 00 	mov    0x1ec0a(%rip),%rax        # 2c920 <g_889>
    dd16:	48 8b 00             	mov    (%rax),%rax
    dd19:	48 8b 00             	mov    (%rax),%rax
    dd1c:	66 89 10             	mov    %dx,(%rax)
    dd1f:	48 8b 05 12 ec 01 00 	mov    0x1ec12(%rip),%rax        # 2c938 <g_1110>
    dd26:	48 8b 00             	mov    (%rax),%rax
    dd29:	49 89 c4             	mov    %rax,%r12
    dd2c:	0f b7 9d 46 ef ff ff 	movzwl -0x10ba(%rbp),%ebx
    dd33:	48 8b 85 78 f8 ff ff 	mov    -0x788(%rbp),%rax
    dd3a:	0f be c0             	movsbl %al,%eax
    dd3d:	be ae ff ff ff       	mov    $0xffffffae,%esi
    dd42:	89 c7                	mov    %eax,%edi
    dd44:	e8 8e c4 ff ff       	call   a1d7 <safe_add_func_int8_t_s_s>
    dd49:	0f be c0             	movsbl %al,%eax
    dd4c:	39 85 7c ef ff ff    	cmp    %eax,-0x1084(%rbp)
    dd52:	0f 97 c0             	seta   %al
    dd55:	0f b6 c0             	movzbl %al,%eax
    dd58:	39 c3                	cmp    %eax,%ebx
    dd5a:	8b 85 50 ef ff ff    	mov    -0x10b0(%rbp),%eax
    dd60:	85 c0                	test   %eax,%eax
    dd62:	75 09                	jne    dd6d <func_40+0xd37>
    dd64:	83 bd b8 ef ff ff 00 	cmpl   $0x0,-0x1048(%rbp)
    dd6b:	74 07                	je     dd74 <func_40+0xd3e>
    dd6d:	b8 01 00 00 00       	mov    $0x1,%eax
    dd72:	eb 05                	jmp    dd79 <func_40+0xd43>
    dd74:	b8 00 00 00 00       	mov    $0x0,%eax
    dd79:	48 63 d0             	movslq %eax,%rdx
    dd7c:	48 8b 85 70 f8 ff ff 	mov    -0x790(%rbp),%rax
    dd83:	48 39 c2             	cmp    %rax,%rdx
    dd86:	0f 94 c0             	sete   %al
    dd89:	0f b6 c0             	movzbl %al,%eax
    dd8c:	39 85 7c ef ff ff    	cmp    %eax,-0x1084(%rbp)
    dd92:	0f 97 c0             	seta   %al
    dd95:	0f b6 c0             	movzbl %al,%eax
    dd98:	4c 89 e6             	mov    %r12,%rsi
    dd9b:	48 89 c7             	mov    %rax,%rdi
    dd9e:	e8 dc d2 ff ff       	call   b07f <safe_mod_func_uint64_t_u_u>
    dda3:	0f b6 d0             	movzbl %al,%edx
    dda6:	48 8b 05 73 ea 01 00 	mov    0x1ea73(%rip),%rax        # 2c820 <g_206>
    ddad:	0f b6 00             	movzbl (%rax),%eax
    ddb0:	0f b6 c0             	movzbl %al,%eax
    ddb3:	89 d6                	mov    %edx,%esi
    ddb5:	89 c7                	mov    %eax,%edi
    ddb7:	e8 9d cd ff ff       	call   ab59 <safe_add_func_uint8_t_u_u>
    ddbc:	c7 85 54 ef ff ff 01 	movl   $0x1,-0x10ac(%rbp)
    ddc3:	00 00 00 
    ddc6:	8b 8d 54 ef ff ff    	mov    -0x10ac(%rbp),%ecx
    ddcc:	48 8b 05 75 ea 01 00 	mov    0x1ea75(%rip),%rax        # 2c848 <g_330>
    ddd3:	48 8b 00             	mov    (%rax),%rax
    ddd6:	8b 10                	mov    (%rax),%edx
    ddd8:	48 8b 05 69 ea 01 00 	mov    0x1ea69(%rip),%rax        # 2c848 <g_330>
    dddf:	48 8b 00             	mov    (%rax),%rax
    dde2:	31 ca                	xor    %ecx,%edx
    dde4:	89 10                	mov    %edx,(%rax)
    dde6:	48 8b 05 c3 a2 01 00 	mov    0x1a2c3(%rip),%rax        # 280b0 <g_2185>
    dded:	48 83 c0 01          	add    $0x1,%rax
    ddf1:	48 89 05 b8 a2 01 00 	mov    %rax,0x1a2b8(%rip)        # 280b0 <g_2185>
    ddf8:	48 8b 05 b1 a2 01 00 	mov    0x1a2b1(%rip),%rax        # 280b0 <g_2185>
    ddff:	48 85 c0             	test   %rax,%rax
    de02:	0f 84 2a fe ff ff    	je     dc32 <func_40+0xbfc>
    de08:	8b 9d 54 ef ff ff    	mov    -0x10ac(%rbp),%ebx
    de0e:	48 8b 85 50 f0 ff ff 	mov    -0xfb0(%rbp),%rax
    de15:	8b 00                	mov    (%rax),%eax
    de17:	89 c6                	mov    %eax,%esi
    de19:	bf 00 00 00 00       	mov    $0x0,%edi
    de1e:	e8 06 c7 ff ff       	call   a529 <safe_rshift_func_int16_t_s_s>
    de23:	83 c8 08             	or     $0x8,%eax
    de26:	48 0f bf c0          	movswq %ax,%rax
    de2a:	48 c7 c6 fe ff ff ff 	mov    $0xfffffffffffffffe,%rsi
    de31:	48 89 c7             	mov    %rax,%rdi
    de34:	e8 75 d2 ff ff       	call   b0ae <safe_div_func_uint64_t_u_u>
    de39:	8b 85 7c ef ff ff    	mov    -0x1084(%rbp),%eax
    de3f:	89 c6                	mov    %eax,%esi
    de41:	bf 02 00 00 00       	mov    $0x2,%edi
    de46:	e8 b1 d0 ff ff       	call   aefc <safe_mod_func_uint32_t_u_u>
    de4b:	98                   	cwtl   
    de4c:	89 de                	mov    %ebx,%esi
    de4e:	89 c7                	mov    %eax,%edi
    de50:	e8 d4 c6 ff ff       	call   a529 <safe_rshift_func_int16_t_s_s>
    de55:	66 85 c0             	test   %ax,%ax
    de58:	75 08                	jne    de62 <func_40+0xe2c>
    de5a:	8b 05 bc a5 01 00    	mov    0x1a5bc(%rip),%eax        # 2841c <g_2870+0xc>
    de60:	85 c0                	test   %eax,%eax
    de62:	48 8b 85 50 f2 ff ff 	mov    -0xdb0(%rbp),%rax
    de69:	48 8b 95 18 f0 ff ff 	mov    -0xfe8(%rbp),%rdx
    de70:	48 89 95 58 f0 ff ff 	mov    %rdx,-0xfa8(%rbp)
    de77:	48 39 85 58 f0 ff ff 	cmp    %rax,-0xfa8(%rbp)
    de7e:	0f 95 c2             	setne  %dl
    de81:	48 8b 05 e0 ea 01 00 	mov    0x1eae0(%rip),%rax        # 2c968 <g_1493>
    de88:	48 8b 00             	mov    (%rax),%rax
    de8b:	0f b6 d2             	movzbl %dl,%edx
    de8e:	89 10                	mov    %edx,(%rax)
    de90:	48 8b 05 a9 e9 01 00 	mov    0x1e9a9(%rip),%rax        # 2c840 <g_331>
    de97:	8b 95 b8 ef ff ff    	mov    -0x1048(%rbp),%edx
    de9d:	89 10                	mov    %edx,(%rax)
    de9f:	8b 85 b8 ef ff ff    	mov    -0x1048(%rbp),%eax
    dea5:	e9 9f 17 00 00       	jmp    f649 <func_40+0x2613>
    deaa:	66 c7 05 0f 95 01 00 	movw   $0x0,0x1950f(%rip)        # 273c2 <g_452+0x12>
    deb1:	00 00 
    deb3:	eb 39                	jmp    deee <func_40+0xeb8>
    deb5:	48 8b 85 98 f0 ff ff 	mov    -0xf68(%rbp),%rax
    debc:	89 c2                	mov    %eax,%edx
    debe:	8b 85 64 ef ff ff    	mov    -0x109c(%rbp),%eax
    dec4:	09 d0                	or     %edx,%eax
    dec6:	89 85 64 ef ff ff    	mov    %eax,-0x109c(%rbp)
    decc:	48 8b 85 50 f0 ff ff 	mov    -0xfb0(%rbp),%rax
    ded3:	8b 00                	mov    (%rax),%eax
    ded5:	85 c0                	test   %eax,%eax
    ded7:	0f 85 ad 01 00 00    	jne    e08a <func_40+0x1054>
    dedd:	0f b7 05 de 94 01 00 	movzwl 0x194de(%rip),%eax        # 273c2 <g_452+0x12>
    dee4:	83 e8 01             	sub    $0x1,%eax
    dee7:	66 89 05 d4 94 01 00 	mov    %ax,0x194d4(%rip)        # 273c2 <g_452+0x12>
    deee:	0f b7 05 cd 94 01 00 	movzwl 0x194cd(%rip),%eax        # 273c2 <g_452+0x12>
    def5:	66 85 c0             	test   %ax,%ax
    def8:	79 bb                	jns    deb5 <func_40+0xe7f>
    defa:	e9 8c 01 00 00       	jmp    e08b <func_40+0x1055>
    deff:	48 8d 05 d2 08 02 00 	lea    0x208d2(%rip),%rax        # 2e7d8 <g_2677+0x18>
    df06:	48 89 85 08 f0 ff ff 	mov    %rax,-0xff8(%rbp)
    df0d:	48 8d 85 08 f0 ff ff 	lea    -0xff8(%rbp),%rax
    df14:	48 89 85 88 f0 ff ff 	mov    %rax,-0xf78(%rbp)
    df1b:	c7 85 b4 ef ff ff 00 	movl   $0x0,-0x104c(%rbp)
    df22:	00 00 00 
    df25:	8b 85 50 ef ff ff    	mov    -0x10b0(%rbp),%eax
    df2b:	0f b7 d8             	movzwl %ax,%ebx
    df2e:	48 8b 05 eb e8 01 00 	mov    0x1e8eb(%rip),%rax        # 2c820 <g_206>
    df35:	0f b6 00             	movzbl (%rax),%eax
    df38:	44 0f b6 f0          	movzbl %al,%r14d
    df3c:	8b 85 b4 ef ff ff    	mov    -0x104c(%rbp),%eax
    df42:	4c 63 e0             	movslq %eax,%r12
    df45:	8b 85 b4 ef ff ff    	mov    -0x104c(%rbp),%eax
    df4b:	44 0f be e8          	movsbl %al,%r13d
    df4f:	8b 85 54 ef ff ff    	mov    -0x10ac(%rbp),%eax
    df55:	41 89 c7             	mov    %eax,%r15d
    df58:	83 bd b4 ef ff ff 00 	cmpl   $0x0,-0x104c(%rbp)
    df5f:	74 12                	je     df73 <func_40+0xf3d>
    df61:	8b 85 b4 ef ff ff    	mov    -0x104c(%rbp),%eax
    df67:	0f b6 c0             	movzbl %al,%eax
    df6a:	89 c7                	mov    %eax,%edi
    df6c:	e8 d3 cb ff ff       	call   ab44 <safe_unary_minus_func_uint8_t_u>
    df71:	84 c0                	test   %al,%al
    df73:	8b 85 50 ef ff ff    	mov    -0x10b0(%rbp),%eax
    df79:	83 c8 01             	or     $0x1,%eax
    df7c:	0f b7 c0             	movzwl %ax,%eax
    df7f:	44 89 fe             	mov    %r15d,%esi
    df82:	89 c7                	mov    %eax,%edi
    df84:	e8 f0 ce ff ff       	call   ae79 <safe_rshift_func_uint16_t_u_u>
    df89:	0f be c0             	movsbl %al,%eax
    df8c:	be ea ff ff ff       	mov    $0xffffffea,%esi
    df91:	89 c7                	mov    %eax,%edi
    df93:	e8 5d c2 ff ff       	call   a1f5 <safe_sub_func_int8_t_s_s>
    df98:	88 85 3e ef ff ff    	mov    %al,-0x10c2(%rbp)
    df9e:	80 bd 3e ef ff ff 00 	cmpb   $0x0,-0x10c2(%rbp)
    dfa5:	74 10                	je     dfb7 <func_40+0xf81>
    dfa7:	80 bd 3e ef ff ff 00 	cmpb   $0x0,-0x10c2(%rbp)
    dfae:	74 07                	je     dfb7 <func_40+0xf81>
    dfb0:	b8 01 00 00 00       	mov    $0x1,%eax
    dfb5:	eb 05                	jmp    dfbc <func_40+0xf86>
    dfb7:	b8 00 00 00 00       	mov    $0x0,%eax
    dfbc:	0f b6 c0             	movzbl %al,%eax
    dfbf:	be 02 00 00 00       	mov    $0x2,%esi
    dfc4:	89 c7                	mov    %eax,%edi
    dfc6:	e8 f2 cc ff ff       	call   acbd <safe_rshift_func_uint8_t_u_u>
    dfcb:	0f be c0             	movsbl %al,%eax
    dfce:	44 89 ee             	mov    %r13d,%esi
    dfd1:	89 c7                	mov    %eax,%edi
    dfd3:	e8 93 c2 ff ff       	call   a26b <safe_div_func_int8_t_s_s>
    dfd8:	3c f7                	cmp    $0xf7,%al
    dfda:	0f 94 c0             	sete   %al
    dfdd:	0f b6 c0             	movzbl %al,%eax
    dfe0:	be 09 00 00 00       	mov    $0x9,%esi
    dfe5:	89 c7                	mov    %eax,%edi
    dfe7:	e8 f4 c4 ff ff       	call   a4e0 <safe_lshift_func_int16_t_s_u>
    dfec:	48 8b 95 08 f0 ff ff 	mov    -0xff8(%rbp),%rdx
    dff3:	48 8b 85 88 f0 ff ff 	mov    -0xf78(%rbp),%rax
    dffa:	48 89 10             	mov    %rdx,(%rax)
    dffd:	48 8b 85 88 f0 ff ff 	mov    -0xf78(%rbp),%rax
    e004:	48 8b 00             	mov    (%rax),%rax
    e007:	48 39 85 30 f0 ff ff 	cmp    %rax,-0xfd0(%rbp)
    e00e:	48 8b 85 50 f0 ff ff 	mov    -0xfb0(%rbp),%rax
    e015:	8b 00                	mov    (%rax),%eax
    e017:	83 f8 08             	cmp    $0x8,%eax
    e01a:	8b 85 b4 ef ff ff    	mov    -0x104c(%rbp),%eax
    e020:	35 39 e9 80 32       	xor    $0x3280e939,%eax
    e025:	48 98                	cltq   
    e027:	4c 89 e6             	mov    %r12,%rsi
    e02a:	48 89 c7             	mov    %rax,%rdi
    e02d:	e8 7c d0 ff ff       	call   b0ae <safe_div_func_uint64_t_u_u>
    e032:	83 e0 01             	and    $0x1,%eax
    e035:	48 85 c0             	test   %rax,%rax
    e038:	75 09                	jne    e043 <func_40+0x100d>
    e03a:	83 bd b4 ef ff ff 00 	cmpl   $0x0,-0x104c(%rbp)
    e041:	74 07                	je     e04a <func_40+0x1014>
    e043:	b8 01 00 00 00       	mov    $0x1,%eax
    e048:	eb 05                	jmp    e04f <func_40+0x1019>
    e04a:	b8 00 00 00 00       	mov    $0x0,%eax
    e04f:	44 39 f0             	cmp    %r14d,%eax
    e052:	0f 9c c0             	setl   %al
    e055:	0f b6 c0             	movzbl %al,%eax
    e058:	89 85 54 ef ff ff    	mov    %eax,-0x10ac(%rbp)
    e05e:	8b 85 54 ef ff ff    	mov    -0x10ac(%rbp),%eax
    e064:	0f b7 c0             	movzwl %ax,%eax
    e067:	89 de                	mov    %ebx,%esi
    e069:	89 c7                	mov    %eax,%edi
    e06b:	e8 1d cd ff ff       	call   ad8d <safe_div_func_uint16_t_u_u>
    e070:	0f b7 c0             	movzwl %ax,%eax
    e073:	89 85 58 ef ff ff    	mov    %eax,-0x10a8(%rbp)
    e079:	0f b6 05 b7 93 01 00 	movzbl 0x193b7(%rip),%eax        # 27437 <g_585+0x17>
    e080:	84 c0                	test   %al,%al
    e082:	0f 85 77 15 00 00    	jne    f5ff <func_40+0x25c9>
    e088:	eb 01                	jmp    e08b <func_40+0x1055>
    e08a:	90                   	nop
    e08b:	48 c7 05 e2 8f 01 00 	movq   $0x0,0x18fe2(%rip)        # 27078 <g_106>
    e092:	00 00 00 00 
    e096:	e9 fa 0a 00 00       	jmp    eb95 <func_40+0x1b5f>
    e09b:	c6 85 43 ef ff ff af 	movb   $0xaf,-0x10bd(%rbp)
    e0a2:	48 8d 85 70 f8 ff ff 	lea    -0x790(%rbp),%rax
    e0a9:	48 8d 15 b0 d0 01 00 	lea    0x1d0b0(%rip),%rdx        # 2b160 <g_4180+0xa18>
    e0b0:	b9 48 00 00 00       	mov    $0x48,%ecx
    e0b5:	48 89 c7             	mov    %rax,%rdi
    e0b8:	48 89 d6             	mov    %rdx,%rsi
    e0bb:	f3 48 a5             	rep movsq %ds:(%rsi),%es:(%rdi)
    e0be:	48 c7 85 a8 f0 ff ff 	movq   $0x0,-0xf58(%rbp)
    e0c5:	00 00 00 00 
    e0c9:	48 8d 05 58 e8 01 00 	lea    0x1e858(%rip),%rax        # 2c928 <g_1071>
    e0d0:	48 89 85 b0 f0 ff ff 	mov    %rax,-0xf50(%rbp)
    e0d7:	48 c7 85 b8 f0 ff ff 	movq   $0x0,-0xf48(%rbp)
    e0de:	00 00 00 00 
    e0e2:	48 8d 05 3f e8 01 00 	lea    0x1e83f(%rip),%rax        # 2c928 <g_1071>
    e0e9:	48 89 85 c0 f0 ff ff 	mov    %rax,-0xf40(%rbp)
    e0f0:	48 c7 85 50 f2 ff ff 	movq   $0x0,-0xdb0(%rbp)
    e0f7:	00 00 00 00 
    e0fb:	48 8d 05 26 e8 01 00 	lea    0x1e826(%rip),%rax        # 2c928 <g_1071>
    e102:	48 89 85 58 f2 ff ff 	mov    %rax,-0xda8(%rbp)
    e109:	48 8d 05 18 e8 01 00 	lea    0x1e818(%rip),%rax        # 2c928 <g_1071>
    e110:	48 89 85 60 f2 ff ff 	mov    %rax,-0xda0(%rbp)
    e117:	48 8d 05 0a e8 01 00 	lea    0x1e80a(%rip),%rax        # 2c928 <g_1071>
    e11e:	48 89 85 68 f2 ff ff 	mov    %rax,-0xd98(%rbp)
    e125:	48 8d 05 fc e7 01 00 	lea    0x1e7fc(%rip),%rax        # 2c928 <g_1071>
    e12c:	48 89 85 70 f2 ff ff 	mov    %rax,-0xd90(%rbp)
    e133:	48 c7 85 78 f2 ff ff 	movq   $0x0,-0xd88(%rbp)
    e13a:	00 00 00 00 
    e13e:	48 8d 05 e3 e7 01 00 	lea    0x1e7e3(%rip),%rax        # 2c928 <g_1071>
    e145:	48 89 85 80 f2 ff ff 	mov    %rax,-0xd80(%rbp)
    e14c:	48 8d 05 d5 e7 01 00 	lea    0x1e7d5(%rip),%rax        # 2c928 <g_1071>
    e153:	48 89 85 88 f2 ff ff 	mov    %rax,-0xd78(%rbp)
    e15a:	48 8d 05 c7 e7 01 00 	lea    0x1e7c7(%rip),%rax        # 2c928 <g_1071>
    e161:	48 89 85 90 f2 ff ff 	mov    %rax,-0xd70(%rbp)
    e168:	48 8d 05 b9 e7 01 00 	lea    0x1e7b9(%rip),%rax        # 2c928 <g_1071>
    e16f:	48 89 85 98 f2 ff ff 	mov    %rax,-0xd68(%rbp)
    e176:	48 8d 05 ab e7 01 00 	lea    0x1e7ab(%rip),%rax        # 2c928 <g_1071>
    e17d:	48 89 85 a0 f2 ff ff 	mov    %rax,-0xd60(%rbp)
    e184:	48 c7 85 a8 f2 ff ff 	movq   $0x0,-0xd58(%rbp)
    e18b:	00 00 00 00 
    e18f:	48 c7 85 b0 f2 ff ff 	movq   $0x0,-0xd50(%rbp)
    e196:	00 00 00 00 
    e19a:	48 8d 05 87 e7 01 00 	lea    0x1e787(%rip),%rax        # 2c928 <g_1071>
    e1a1:	48 89 85 b8 f2 ff ff 	mov    %rax,-0xd48(%rbp)
    e1a8:	48 8d 05 79 e7 01 00 	lea    0x1e779(%rip),%rax        # 2c928 <g_1071>
    e1af:	48 89 85 c0 f2 ff ff 	mov    %rax,-0xd40(%rbp)
    e1b6:	48 8d 05 6b e7 01 00 	lea    0x1e76b(%rip),%rax        # 2c928 <g_1071>
    e1bd:	48 89 85 c8 f2 ff ff 	mov    %rax,-0xd38(%rbp)
    e1c4:	48 8d 05 5d e7 01 00 	lea    0x1e75d(%rip),%rax        # 2c928 <g_1071>
    e1cb:	48 89 85 d0 f2 ff ff 	mov    %rax,-0xd30(%rbp)
    e1d2:	48 c7 85 d8 f2 ff ff 	movq   $0x0,-0xd28(%rbp)
    e1d9:	00 00 00 00 
    e1dd:	48 8d 05 44 e7 01 00 	lea    0x1e744(%rip),%rax        # 2c928 <g_1071>
    e1e4:	48 89 85 e0 f2 ff ff 	mov    %rax,-0xd20(%rbp)
    e1eb:	48 c7 85 e8 f2 ff ff 	movq   $0x0,-0xd18(%rbp)
    e1f2:	00 00 00 00 
    e1f6:	48 8d 05 2b e7 01 00 	lea    0x1e72b(%rip),%rax        # 2c928 <g_1071>
    e1fd:	48 89 85 f0 f2 ff ff 	mov    %rax,-0xd10(%rbp)
    e204:	48 8d 05 1d e7 01 00 	lea    0x1e71d(%rip),%rax        # 2c928 <g_1071>
    e20b:	48 89 85 f8 f2 ff ff 	mov    %rax,-0xd08(%rbp)
    e212:	48 c7 85 00 f3 ff ff 	movq   $0x0,-0xd00(%rbp)
    e219:	00 00 00 00 
    e21d:	48 8d 05 04 e7 01 00 	lea    0x1e704(%rip),%rax        # 2c928 <g_1071>
    e224:	48 89 85 08 f3 ff ff 	mov    %rax,-0xcf8(%rbp)
    e22b:	8b 9d 58 ef ff ff    	mov    -0x10a8(%rbp),%ebx
    e231:	44 8b a5 7c ef ff ff 	mov    -0x1084(%rbp),%r12d
    e238:	48 8b 05 e1 e5 01 00 	mov    0x1e5e1(%rip),%rax        # 2c820 <g_206>
    e23f:	0f b6 00             	movzbl (%rax),%eax
    e242:	44 0f b6 e8          	movzbl %al,%r13d
    e246:	44 0f b6 b5 43 ef ff 	movzbl -0x10bd(%rbp),%r14d
    e24d:	ff 
    e24e:	48 8b 85 50 f0 ff ff 	mov    -0xfb0(%rbp),%rax
    e255:	8b 00                	mov    (%rax),%eax
    e257:	0f b6 c0             	movzbl %al,%eax
    e25a:	89 c6                	mov    %eax,%esi
    e25c:	bf 00 00 00 00       	mov    $0x0,%edi
    e261:	e8 2c c9 ff ff       	call   ab92 <safe_mul_func_uint8_t_u_u>
    e266:	48 8b 05 db e5 01 00 	mov    0x1e5db(%rip),%rax        # 2c848 <g_330>
    e26d:	48 8b 00             	mov    (%rax),%rax
    e270:	c7 00 ba 3c c1 c7    	movl   $0xc7c13cba,(%rax)
    e276:	8b 00                	mov    (%rax),%eax
    e278:	3d 20 ca 7c 30       	cmp    $0x307cca20,%eax
    e27d:	0f 95 c0             	setne  %al
    e280:	0f b6 c0             	movzbl %al,%eax
    e283:	44 89 f6             	mov    %r14d,%esi
    e286:	89 c7                	mov    %eax,%edi
    e288:	e8 ec cb ff ff       	call   ae79 <safe_rshift_func_uint16_t_u_u>
    e28d:	0f b6 c0             	movzbl %al,%eax
    e290:	44 89 ee             	mov    %r13d,%esi
    e293:	89 c7                	mov    %eax,%edi
    e295:	e8 23 ca ff ff       	call   acbd <safe_rshift_func_uint8_t_u_u>
    e29a:	84 c0                	test   %al,%al
    e29c:	74 07                	je     e2a5 <func_40+0x126f>
    e29e:	ba 01 00 00 00       	mov    $0x1,%edx
    e2a3:	eb 05                	jmp    e2aa <func_40+0x1274>
    e2a5:	ba 00 00 00 00       	mov    $0x0,%edx
    e2aa:	0f be 85 3e ef ff ff 	movsbl -0x10c2(%rbp),%eax
    e2b1:	39 c2                	cmp    %eax,%edx
    e2b3:	0f 94 c0             	sete   %al
    e2b6:	0f b6 d0             	movzbl %al,%edx
    e2b9:	0f b6 85 43 ef ff ff 	movzbl -0x10bd(%rbp),%eax
    e2c0:	48 89 d6             	mov    %rdx,%rsi
    e2c3:	48 89 c7             	mov    %rax,%rdi
    e2c6:	e8 62 cd ff ff       	call   b02d <safe_add_func_uint64_t_u_u>
    e2cb:	48 3d 45 5e 00 00    	cmp    $0x5e45,%rax
    e2d1:	0f 94 c0             	sete   %al
    e2d4:	0f b6 d0             	movzbl %al,%edx
    e2d7:	8b 85 54 ef ff ff    	mov    -0x10ac(%rbp),%eax
    e2dd:	39 c2                	cmp    %eax,%edx
    e2df:	0f 9d c0             	setge  %al
    e2e2:	44 0f b6 e8          	movzbl %al,%r13d
    e2e6:	be 06 00 00 00       	mov    $0x6,%esi
    e2eb:	bf f9 ff ff ff       	mov    $0xfffffff9,%edi
    e2f0:	e8 78 c0 ff ff       	call   a36d <safe_rshift_func_int8_t_s_u>
    e2f5:	be 0b 00 00 00       	mov    $0xb,%esi
    e2fa:	bf 01 00 00 00       	mov    $0x1,%edi
    e2ff:	e8 75 cb ff ff       	call   ae79 <safe_rshift_func_uint16_t_u_u>
    e304:	66 23 85 46 ef ff ff 	and    -0x10ba(%rbp),%ax
    e30b:	0f b7 c0             	movzwl %ax,%eax
    e30e:	44 89 ee             	mov    %r13d,%esi
    e311:	89 c7                	mov    %eax,%edi
    e313:	e8 ec c2 ff ff       	call   a604 <safe_sub_func_int32_t_s_s>
    e318:	f7 d0                	not    %eax
    e31a:	c1 e8 1f             	shr    $0x1f,%eax
    e31d:	0f b6 c0             	movzbl %al,%eax
    e320:	4c 89 e6             	mov    %r12,%rsi
    e323:	48 89 c7             	mov    %rax,%rdi
    e326:	e8 7c c5 ff ff       	call   a8a7 <safe_sub_func_int64_t_s_s>
    e32b:	0f b7 c0             	movzwl %ax,%eax
    e32e:	89 de                	mov    %ebx,%esi
    e330:	89 c7                	mov    %eax,%edi
    e332:	e8 86 ca ff ff       	call   adbd <safe_lshift_func_uint16_t_u_s>
    e337:	0f b6 c0             	movzbl %al,%eax
    e33a:	be 06 00 00 00       	mov    $0x6,%esi
    e33f:	89 c7                	mov    %eax,%edi
    e341:	e8 46 c9 ff ff       	call   ac8c <safe_rshift_func_uint8_t_u_s>
    e346:	0f b6 d0             	movzbl %al,%edx
    e349:	8b 85 5c ef ff ff    	mov    -0x10a4(%rbp),%eax
    e34f:	09 d0                	or     %edx,%eax
    e351:	89 85 5c ef ff ff    	mov    %eax,-0x10a4(%rbp)
    e357:	c6 85 3f ef ff ff 00 	movb   $0x0,-0x10c1(%rbp)
    e35e:	eb 2d                	jmp    e38d <func_40+0x1357>
    e360:	0f b6 85 3f ef ff ff 	movzbl -0x10c1(%rbp),%eax
    e367:	48 98                	cltq   
    e369:	48 8d 14 c5 00 00 00 	lea    0x0(,%rax,8),%rdx
    e370:	00 
    e371:	48 8d 05 d0 8c 01 00 	lea    0x18cd0(%rip),%rax        # 27048 <g_18>
    e378:	48 bb d8 aa 7a ad 86 	movabs $0x21d20586ad7aaad8,%rbx
    e37f:	05 d2 21 
    e382:	48 89 1c 02          	mov    %rbx,(%rdx,%rax,1)
    e386:	80 85 3f ef ff ff 01 	addb   $0x1,-0x10c1(%rbp)
    e38d:	80 bd 3f ef ff ff 00 	cmpb   $0x0,-0x10c1(%rbp)
    e394:	74 ca                	je     e360 <func_40+0x132a>
    e396:	48 8d 05 1b 9a 01 00 	lea    0x19a1b(%rip),%rax        # 27db8 <g_1719>
    e39d:	48 89 85 20 f0 ff ff 	mov    %rax,-0xfe0(%rbp)
    e3a4:	48 8b 85 20 f0 ff ff 	mov    -0xfe0(%rbp),%rax
    e3ab:	48 89 85 f8 f1 ff ff 	mov    %rax,-0xe08(%rbp)
    e3b2:	48 8b 05 8f e4 01 00 	mov    0x1e48f(%rip),%rax        # 2c848 <g_330>
    e3b9:	48 8b 00             	mov    (%rax),%rax
    e3bc:	8b 00                	mov    (%rax),%eax
    e3be:	85 c0                	test   %eax,%eax
    e3c0:	0f 85 e1 07 00 00    	jne    eba7 <func_40+0x1b71>
    e3c6:	0f b7 05 2b a0 01 00 	movzwl 0x1a02b(%rip),%eax        # 283f8 <g_2869+0x8>
    e3cd:	66 85 c0             	test   %ax,%ax
    e3d0:	0f 85 2f 12 00 00    	jne    f605 <func_40+0x25cf>
    e3d6:	48 8b 05 9b e5 01 00 	mov    0x1e59b(%rip),%rax        # 2c978 <g_1491>
    e3dd:	48 8b 00             	mov    (%rax),%rax
    e3e0:	48 8b 00             	mov    (%rax),%rax
    e3e3:	48 8b 00             	mov    (%rax),%rax
    e3e6:	8b 00                	mov    (%rax),%eax
    e3e8:	be f7 ff ff ff       	mov    $0xfffffff7,%esi
    e3ed:	89 c7                	mov    %eax,%edi
    e3ef:	e8 c1 c1 ff ff       	call   a5b5 <safe_add_func_int32_t_s_s>
    e3f4:	85 c0                	test   %eax,%eax
    e3f6:	0f 84 bf 00 00 00    	je     e4bb <func_40+0x1485>
    e3fc:	48 8d 05 45 a0 01 00 	lea    0x1a045(%rip),%rax        # 28448 <g_2952>
    e403:	48 89 85 f8 f0 ff ff 	mov    %rax,-0xf08(%rbp)
    e40a:	c7 05 48 8c 01 00 01 	movl   $0x1,0x18c48(%rip)        # 2705c <g_78>
    e411:	00 00 00 
    e414:	e9 8f 00 00 00       	jmp    e4a8 <func_40+0x1472>
    e419:	48 8d 05 e0 e3 01 00 	lea    0x1e3e0(%rip),%rax        # 2c800 <g_143>
    e420:	48 c7 00 00 00 00 00 	movq   $0x0,(%rax)
    e427:	48 8b 05 b2 e4 01 00 	mov    0x1e4b2(%rip),%rax        # 2c8e0 <g_751>
    e42e:	48 8b 00             	mov    (%rax),%rax
    e431:	48 8b 00             	mov    (%rax),%rax
    e434:	48 89 85 f8 f0 ff ff 	mov    %rax,-0xf08(%rbp)
    e43b:	48 8b 05 9e 8f 01 00 	mov    0x18f9e(%rip),%rax        # 273e0 <g_549>
    e442:	48 8d 48 01          	lea    0x1(%rax),%rcx
    e446:	48 8b 3d 93 8f 01 00 	mov    0x18f93(%rip),%rdi        # 273e0 <g_549>
    e44d:	48 8b 35 8c 8f 01 00 	mov    0x18f8c(%rip),%rsi        # 273e0 <g_549>
    e454:	48 8b 05 fd e3 01 00 	mov    0x1e3fd(%rip),%rax        # 2c858 <g_456>
    e45b:	48 8b 10             	mov    (%rax),%rdx
    e45e:	48 89 c8             	mov    %rcx,%rax
    e461:	48 c1 e0 02          	shl    $0x2,%rax
    e465:	48 01 c8             	add    %rcx,%rax
    e468:	48 01 c0             	add    %rax,%rax
    e46b:	48 01 f8             	add    %rdi,%rax
    e46e:	48 01 c0             	add    %rax,%rax
    e471:	48 01 f0             	add    %rsi,%rax
    e474:	48 8d 0c 85 00 00 00 	lea    0x0(,%rax,4),%rcx
    e47b:	00 
    e47c:	48 8d 05 1d 8d 01 00 	lea    0x18d1d(%rip),%rax        # 271a0 <g_334>
    e483:	48 01 c8             	add    %rcx,%rax
    e486:	48 89 02             	mov    %rax,(%rdx)
    e489:	48 8b 05 20 9c 01 00 	mov    0x19c20(%rip),%rax        # 280b0 <g_2185>
    e490:	48 85 c0             	test   %rax,%rax
    e493:	0f 85 72 11 00 00    	jne    f60b <func_40+0x25d5>
    e499:	8b 05 bd 8b 01 00    	mov    0x18bbd(%rip),%eax        # 2705c <g_78>
    e49f:	83 e8 01             	sub    $0x1,%eax
    e4a2:	89 05 b4 8b 01 00    	mov    %eax,0x18bb4(%rip)        # 2705c <g_78>
    e4a8:	8b 05 ae 8b 01 00    	mov    0x18bae(%rip),%eax        # 2705c <g_78>
    e4ae:	85 c0                	test   %eax,%eax
    e4b0:	0f 89 63 ff ff ff    	jns    e419 <func_40+0x13e3>
    e4b6:	e9 c8 06 00 00       	jmp    eb83 <func_40+0x1b4d>
    e4bb:	c6 85 44 ef ff ff 06 	movb   $0x6,-0x10bc(%rbp)
    e4c2:	48 8d 05 ef 8e 01 00 	lea    0x18eef(%rip),%rax        # 273b8 <g_452+0x8>
    e4c9:	48 89 85 c8 f0 ff ff 	mov    %rax,-0xf38(%rbp)
    e4d0:	c7 85 bc ef ff ff 06 	movl   $0x6,-0x1044(%rbp)
    e4d7:	00 00 00 
    e4da:	c7 85 c0 ef ff ff 01 	movl   $0x1,-0x1040(%rbp)
    e4e1:	00 00 00 
    e4e4:	c7 85 c4 ef ff ff f8 	movl   $0xfffffff8,-0x103c(%rbp)
    e4eb:	ff ff ff 
    e4ee:	c7 85 c8 ef ff ff 78 	movl   $0x27f45578,-0x1038(%rbp)
    e4f5:	55 f4 27 
    e4f8:	c7 85 90 ef ff ff 07 	movl   $0x7,-0x1070(%rbp)
    e4ff:	00 00 00 
    e502:	c7 85 cc ef ff ff 01 	movl   $0x1,-0x1034(%rbp)
    e509:	00 00 00 
    e50c:	c7 85 d0 ef ff ff fa 	movl   $0xfffffffa,-0x1030(%rbp)
    e513:	ff ff ff 
    e516:	48 c7 85 d0 f0 ff ff 	movq   $0x0,-0xf30(%rbp)
    e51d:	00 00 00 00 
    e521:	48 8b 05 48 e4 01 00 	mov    0x1e448(%rip),%rax        # 2c970 <g_1492>
    e528:	48 8b 10             	mov    (%rax),%rdx
    e52b:	48 8b 05 36 e4 01 00 	mov    0x1e436(%rip),%rax        # 2c968 <g_1493>
    e532:	48 8b 12             	mov    (%rdx),%rdx
    e535:	48 89 10             	mov    %rdx,(%rax)
    e538:	48 8b 05 f9 e3 01 00 	mov    0x1e3f9(%rip),%rax        # 2c938 <g_1110>
    e53f:	48 8b 00             	mov    (%rax),%rax
    e542:	49 89 c5             	mov    %rax,%r13
    e545:	48 8b 05 4c e4 01 00 	mov    0x1e44c(%rip),%rax        # 2c998 <g_1708>
    e54c:	8b 18                	mov    (%rax),%ebx
    e54e:	48 8b 85 50 f0 ff ff 	mov    -0xfb0(%rbp),%rax
    e555:	8b 00                	mov    (%rax),%eax
    e557:	be 01 00 00 00       	mov    $0x1,%esi
    e55c:	89 c7                	mov    %eax,%edi
    e55e:	e8 c1 c9 ff ff       	call   af24 <safe_div_func_uint32_t_u_u>
    e563:	39 c3                	cmp    %eax,%ebx
    e565:	0f 94 c0             	sete   %al
    e568:	0f b6 d8             	movzbl %al,%ebx
    e56b:	48 8b 85 c8 f0 ff ff 	mov    -0xf38(%rbp),%rax
    e572:	66 c7 00 78 55       	movw   $0x5578,(%rax)
    e577:	0f be 95 44 ef ff ff 	movsbl -0x10bc(%rbp),%edx
    e57e:	48 8b 85 50 f0 ff ff 	mov    -0xfb0(%rbp),%rax
    e585:	8b 00                	mov    (%rax),%eax
    e587:	39 c2                	cmp    %eax,%edx
    e589:	0f 9e c0             	setle  %al
    e58c:	0f b6 c0             	movzbl %al,%eax
    e58f:	be 78 55 00 00       	mov    $0x5578,%esi
    e594:	89 c7                	mov    %eax,%edi
    e596:	e8 a1 c7 ff ff       	call   ad3c <safe_mul_func_uint16_t_u_u>
    e59b:	44 0f b7 e0          	movzwl %ax,%r12d
    e59f:	48 0f be 95 44 ef ff 	movsbq -0x10bc(%rbp),%rdx
    e5a6:	ff 
    e5a7:	48 8b 85 50 f0 ff ff 	mov    -0xfb0(%rbp),%rax
    e5ae:	8b 08                	mov    (%rax),%ecx
    e5b0:	8b 85 50 ef ff ff    	mov    -0x10b0(%rbp),%eax
    e5b6:	39 c1                	cmp    %eax,%ecx
    e5b8:	0f 95 c0             	setne  %al
    e5bb:	0f b6 c0             	movzbl %al,%eax
    e5be:	48 89 d6             	mov    %rdx,%rsi
    e5c1:	48 89 c7             	mov    %rax,%rdi
    e5c4:	e8 77 c2 ff ff       	call   a840 <safe_add_func_int64_t_s_s>
    e5c9:	49 39 c4             	cmp    %rax,%r12
    e5cc:	0f 95 c0             	setne  %al
    e5cf:	0f b6 c0             	movzbl %al,%eax
    e5d2:	89 de                	mov    %ebx,%esi
    e5d4:	89 c7                	mov    %eax,%edi
    e5d6:	e8 38 bc ff ff       	call   a213 <safe_mul_func_int8_t_s_s>
    e5db:	48 0f be c0          	movsbq %al,%rax
    e5df:	4c 89 ee             	mov    %r13,%rsi
    e5e2:	48 89 c7             	mov    %rax,%rdi
    e5e5:	e8 60 ca ff ff       	call   b04a <safe_sub_func_uint64_t_u_u>
    e5ea:	48 83 f8 ff          	cmp    $0xffffffffffffffff,%rax
    e5ee:	0f 85 46 01 00 00    	jne    e73a <func_40+0x1704>
    e5f4:	48 8b 85 50 f0 ff ff 	mov    -0xfb0(%rbp),%rax
    e5fb:	8b 00                	mov    (%rax),%eax
    e5fd:	85 c0                	test   %eax,%eax
    e5ff:	0f 84 35 01 00 00    	je     e73a <func_40+0x1704>
    e605:	48 8d 05 cc 8a 01 00 	lea    0x18acc(%rip),%rax        # 270d8 <g_123+0x38>
    e60c:	48 89 85 d8 f0 ff ff 	mov    %rax,-0xf28(%rbp)
    e613:	c7 85 d4 ef ff ff 03 	movl   $0x3,-0x102c(%rbp)
    e61a:	00 00 00 
    e61d:	c7 85 d8 ef ff ff 00 	movl   $0x0,-0x1028(%rbp)
    e624:	00 00 00 
    e627:	c7 85 dc ef ff ff 7b 	movl   $0xb5dcef7b,-0x1024(%rbp)
    e62e:	ef dc b5 
    e631:	c7 85 e0 ef ff ff 87 	movl   $0xbdddfb87,-0x1020(%rbp)
    e638:	fb dd bd 
    e63b:	c7 85 e4 ef ff ff 3b 	movl   $0x7dc82a3b,-0x101c(%rbp)
    e642:	2a c8 7d 
    e645:	c7 85 e8 ef ff ff 3c 	movl   $0xb43df33c,-0x1018(%rbp)
    e64c:	f3 3d b4 
    e64f:	c7 85 00 f2 ff ff 09 	movl   $0x9,-0xe00(%rbp)
    e656:	00 00 00 
    e659:	c7 85 04 f2 ff ff 09 	movl   $0x9,-0xdfc(%rbp)
    e660:	00 00 00 
    e663:	c7 85 08 f2 ff ff 09 	movl   $0x9,-0xdf8(%rbp)
    e66a:	00 00 00 
    e66d:	c7 85 0c f2 ff ff 09 	movl   $0x9,-0xdf4(%rbp)
    e674:	00 00 00 
    e677:	c7 85 10 f2 ff ff 09 	movl   $0x9,-0xdf0(%rbp)
    e67e:	00 00 00 
    e681:	c7 85 14 f2 ff ff 09 	movl   $0x9,-0xdec(%rbp)
    e688:	00 00 00 
    e68b:	c7 85 18 f2 ff ff 09 	movl   $0x9,-0xde8(%rbp)
    e692:	00 00 00 
    e695:	c7 85 1c f2 ff ff 09 	movl   $0x9,-0xde4(%rbp)
    e69c:	00 00 00 
    e69f:	c7 85 20 f2 ff ff 09 	movl   $0x9,-0xde0(%rbp)
    e6a6:	00 00 00 
    e6a9:	48 8b 05 30 e2 01 00 	mov    0x1e230(%rip),%rax        # 2c8e0 <g_751>
    e6b0:	48 8b 00             	mov    (%rax),%rax
    e6b3:	48 8b 00             	mov    (%rax),%rax
    e6b6:	48 39 85 d8 f0 ff ff 	cmp    %rax,-0xf28(%rbp)
    e6bd:	0f 94 c0             	sete   %al
    e6c0:	0f b6 c0             	movzbl %al,%eax
    e6c3:	48 8b 15 26 01 02 00 	mov    0x20126(%rip),%rdx        # 2e7f0 <g_2971>
    e6ca:	8b 95 50 ef ff ff    	mov    -0x10b0(%rbp),%edx
    e6d0:	89 95 bc ef ff ff    	mov    %edx,-0x1044(%rbp)
    e6d6:	39 85 bc ef ff ff    	cmp    %eax,-0x1044(%rbp)
    e6dc:	0f 94 c0             	sete   %al
    e6df:	89 c2                	mov    %eax,%edx
    e6e1:	48 8b 85 18 f0 ff ff 	mov    -0xfe8(%rbp),%rax
    e6e8:	88 10                	mov    %dl,(%rax)
    e6ea:	48 83 bd 70 f0 ff ff 	cmpq   $0x0,-0xf90(%rbp)
    e6f1:	00 
    e6f2:	0f 94 c0             	sete   %al
    e6f5:	0f b6 c8             	movzbl %al,%ecx
    e6f8:	48 8b 05 41 e1 01 00 	mov    0x1e141(%rip),%rax        # 2c840 <g_331>
    e6ff:	8b 10                	mov    (%rax),%edx
    e701:	48 8b 05 38 e1 01 00 	mov    0x1e138(%rip),%rax        # 2c840 <g_331>
    e708:	09 ca                	or     %ecx,%edx
    e70a:	89 10                	mov    %edx,(%rax)
    e70c:	83 ad 84 ef ff ff 01 	subl   $0x1,-0x107c(%rbp)
    e713:	8b 85 50 ef ff ff    	mov    -0x10b0(%rbp),%eax
    e719:	85 c0                	test   %eax,%eax
    e71b:	0f 85 61 04 00 00    	jne    eb82 <func_40+0x1b4c>
    e721:	48 8b 05 f0 e0 01 00 	mov    0x1e0f0(%rip),%rax        # 2c818 <g_172>
    e728:	8b 10                	mov    (%rax),%edx
    e72a:	8b 85 50 ef ff ff    	mov    -0x10b0(%rbp),%eax
    e730:	09 d0                	or     %edx,%eax
    e732:	89 85 50 ef ff ff    	mov    %eax,-0x10b0(%rbp)
    e738:	eb 11                	jmp    e74b <func_40+0x1715>
    e73a:	c7 85 ec ef ff ff 00 	movl   $0x0,-0x1014(%rbp)
    e741:	00 00 00 
    e744:	83 ad ec ef ff ff 01 	subl   $0x1,-0x1014(%rbp)
    e74b:	c7 85 58 ef ff ff 00 	movl   $0x0,-0x10a8(%rbp)
    e752:	00 00 00 
    e755:	e9 0c 04 00 00       	jmp    eb66 <func_40+0x1b30>
    e75a:	48 8d 05 07 ff 01 00 	lea    0x1ff07(%rip),%rax        # 2e668 <g_32>
    e761:	48 89 85 e0 f0 ff ff 	mov    %rax,-0xf20(%rbp)
    e768:	48 c7 85 00 f0 ff ff 	movq   $0x0,-0x1000(%rbp)
    e76f:	00 00 00 00 
    e773:	48 8d 85 00 f0 ff ff 	lea    -0x1000(%rbp),%rax
    e77a:	48 89 85 08 f0 ff ff 	mov    %rax,-0xff8(%rbp)
    e781:	48 8d 85 08 f0 ff ff 	lea    -0xff8(%rbp),%rax
    e788:	48 89 85 e8 f0 ff ff 	mov    %rax,-0xf18(%rbp)
    e78f:	c7 85 f0 ef ff ff 02 	movl   $0x2,-0x1010(%rbp)
    e796:	00 00 00 
    e799:	66 c7 85 4c ef ff ff 	movw   $0x69f,-0x10b4(%rbp)
    e7a0:	9f 06 
    e7a2:	48 8d 05 3f e0 01 00 	lea    0x1e03f(%rip),%rax        # 2c7e8 <g_133>
    e7a9:	48 89 85 f0 f0 ff ff 	mov    %rax,-0xf10(%rbp)
    e7b0:	8b 05 f6 95 01 00    	mov    0x195f6(%rip),%eax        # 27dac <g_1699+0xc>
    e7b6:	41 89 c6             	mov    %eax,%r14d
    e7b9:	8b 85 54 ef ff ff    	mov    -0x10ac(%rbp),%eax
    e7bf:	0f b7 d8             	movzwl %ax,%ebx
    e7c2:	44 0f b7 a5 48 ef ff 	movzwl -0x10b8(%rbp),%r12d
    e7c9:	ff 
    e7ca:	8b 85 f0 ef ff ff    	mov    -0x1010(%rbp),%eax
    e7d0:	44 0f bf e8          	movswl %ax,%r13d
    e7d4:	48 8b 85 e8 f0 ff ff 	mov    -0xf18(%rbp),%rax
    e7db:	48 8d 15 0e e1 01 00 	lea    0x1e10e(%rip),%rdx        # 2c8f0 <g_778>
    e7e2:	48 89 10             	mov    %rdx,(%rax)
    e7e5:	be 00 00 00 00       	mov    $0x0,%esi
    e7ea:	bf 95 54 00 00       	mov    $0x5495,%edi
    e7ef:	e8 9d bc ff ff       	call   a491 <safe_lshift_func_int16_t_s_s>
    e7f4:	48 0f bf d0          	movswq %ax,%rdx
    e7f8:	48 8b 85 e0 f0 ff ff 	mov    -0xf20(%rbp),%rax
    e7ff:	48 3b 85 d0 f0 ff ff 	cmp    -0xf30(%rbp),%rax
    e806:	0f 94 c0             	sete   %al
    e809:	0f b6 c0             	movzbl %al,%eax
    e80c:	39 85 7c ef ff ff    	cmp    %eax,-0x1084(%rbp)
    e812:	0f 93 c0             	setae  %al
    e815:	0f b6 c0             	movzbl %al,%eax
    e818:	48 89 d6             	mov    %rdx,%rsi
    e81b:	48 89 c7             	mov    %rax,%rdi
    e81e:	e8 0a c8 ff ff       	call   b02d <safe_add_func_uint64_t_u_u>
    e823:	89 c2                	mov    %eax,%edx
    e825:	8b 85 34 f3 ff ff    	mov    -0xccc(%rbp),%eax
    e82b:	89 d6                	mov    %edx,%esi
    e82d:	89 c7                	mov    %eax,%edi
    e82f:	e8 81 bd ff ff       	call   a5b5 <safe_add_func_int32_t_s_s>
    e834:	0f be 95 44 ef ff ff 	movsbl -0x10bc(%rbp),%edx
    e83b:	39 d0                	cmp    %edx,%eax
    e83d:	0f 9f c0             	setg   %al
    e840:	0f b6 d0             	movzbl %al,%edx
    e843:	48 8b 85 50 f0 ff ff 	mov    -0xfb0(%rbp),%rax
    e84a:	8b 00                	mov    (%rax),%eax
    e84c:	39 c2                	cmp    %eax,%edx
    e84e:	0f 9c c0             	setl   %al
    e851:	0f b6 d0             	movzbl %al,%edx
    e854:	48 8b 05 c5 e0 01 00 	mov    0x1e0c5(%rip),%rax        # 2c920 <g_889>
    e85b:	48 8b 00             	mov    (%rax),%rax
    e85e:	48 8b 00             	mov    (%rax),%rax
    e861:	0f b7 08             	movzwl (%rax),%ecx
    e864:	48 8b 05 b5 e0 01 00 	mov    0x1e0b5(%rip),%rax        # 2c920 <g_889>
    e86b:	48 8b 00             	mov    (%rax),%rax
    e86e:	48 8b 00             	mov    (%rax),%rax
    e871:	31 ca                	xor    %ecx,%edx
    e873:	66 89 10             	mov    %dx,(%rax)
    e876:	0f b7 00             	movzwl (%rax),%eax
    e879:	66 85 c0             	test   %ax,%ax
    e87c:	0f 94 c0             	sete   %al
    e87f:	0f b6 c0             	movzbl %al,%eax
    e882:	44 89 ee             	mov    %r13d,%esi
    e885:	89 c7                	mov    %eax,%edi
    e887:	e8 c8 bb ff ff       	call   a454 <safe_div_func_int16_t_s_s>
    e88c:	0f bf d0             	movswl %ax,%edx
    e88f:	48 8b 05 02 e1 01 00 	mov    0x1e102(%rip),%rax        # 2c998 <g_1708>
    e896:	8b 00                	mov    (%rax),%eax
    e898:	39 c2                	cmp    %eax,%edx
    e89a:	0f 93 c0             	setae  %al
    e89d:	0f b6 d0             	movzbl %al,%edx
    e8a0:	48 8b 05 79 df 01 00 	mov    0x1df79(%rip),%rax        # 2c820 <g_206>
    e8a7:	0f b6 00             	movzbl (%rax),%eax
    e8aa:	0f b6 c0             	movzbl %al,%eax
    e8ad:	09 d0                	or     %edx,%eax
    e8af:	0f b7 c0             	movzwl %ax,%eax
    e8b2:	44 89 e6             	mov    %r12d,%esi
    e8b5:	89 c7                	mov    %eax,%edi
    e8b7:	e8 d1 c4 ff ff       	call   ad8d <safe_div_func_uint16_t_u_u>
    e8bc:	0f b7 c0             	movzwl %ax,%eax
    e8bf:	89 de                	mov    %ebx,%esi
    e8c1:	89 c7                	mov    %eax,%edi
    e8c3:	e8 93 c4 ff ff       	call   ad5b <safe_mod_func_uint16_t_u_u>
    e8c8:	0f b7 c0             	movzwl %ax,%eax
    e8cb:	4c 89 f6             	mov    %r14,%rsi
    e8ce:	48 89 c7             	mov    %rax,%rdi
    e8d1:	e8 d8 c7 ff ff       	call   b0ae <safe_div_func_uint64_t_u_u>
    e8d6:	89 c2                	mov    %eax,%edx
    e8d8:	8b 85 90 ef ff ff    	mov    -0x1070(%rbp),%eax
    e8de:	21 d0                	and    %edx,%eax
    e8e0:	89 85 90 ef ff ff    	mov    %eax,-0x1070(%rbp)
    e8e6:	8b 85 90 ef ff ff    	mov    -0x1070(%rbp),%eax
    e8ec:	89 85 f0 ef ff ff    	mov    %eax,-0x1010(%rbp)
    e8f2:	48 8b 05 cf de 01 00 	mov    0x1decf(%rip),%rax        # 2c7c8 <g_99>
    e8f9:	0f b6 00             	movzbl (%rax),%eax
    e8fc:	0f b6 d8             	movzbl %al,%ebx
    e8ff:	8b 85 d0 f4 ff ff    	mov    -0xb30(%rbp),%eax
    e905:	41 89 c5             	mov    %eax,%r13d
    e908:	0f b7 85 48 ef ff ff 	movzwl -0x10b8(%rbp),%eax
    e90f:	f7 d0                	not    %eax
    e911:	0f b6 c0             	movzbl %al,%eax
